
cmark.exe:     file format elf64-littleriscv


Disassembly of section .text:

0000000000000000 <_start>:
       0:	595552b7          	lui	t0,0x59555
       4:	5552829b          	addiw	t0,t0,1365
       8:	7c029073          	csrw	0x7c0,t0
       c:	00018117          	auipc	sp,0x18
      10:	65410113          	addi	sp,sp,1620 # 18660 <STACK>
      14:	313070ef          	jal	ra,7b26 <main>

0000000000000018 <_finish>:
      18:	70580297          	auipc	t0,0x70580
      1c:	fe828293          	addi	t0,t0,-24 # 70580000 <tohost>
      20:	0ff00313          	li	t1,255
      24:	00628023          	sb	t1,0(t0)
      28:	4305                	li	t1,1
      2a:	0062a023          	sw	t1,0(t0)
      2e:	fe0005e3          	beqz	zero,18 <_finish>
      32:	0001                	nop
      34:	0001                	nop
      36:	0001                	nop
      38:	0001                	nop
      3a:	0001                	nop
      3c:	0001                	nop
      3e:	0001                	nop
      40:	0001                	nop
      42:	0001                	nop
      44:	0001                	nop

0000000000000046 <whisperPrintfImpl>:
int
whisperPrintfImpl(const char* format, va_list ap)
{
  int count = 0;  // Printed character count

  for (const char* fp = format; *fp; fp++)
      46:	00054683          	lbu	a3,0(a0)
      4a:	120689e3          	beqz	a3,97c <whisperPrintfImpl+0x936>
{
      4e:	7159                	addi	sp,sp,-112
      50:	f4a2                	sd	s0,104(sp)
      52:	00810393          	addi	t2,sp,8
      56:	6441                	lui	s0,0x10
      58:	4285                	li	t0,1
      5a:	f0a6                	sd	s1,96(sp)
      5c:	ecca                	sd	s2,88(sp)
      5e:	e8ce                	sd	s3,80(sp)
      60:	e4d2                	sd	s4,72(sp)
      62:	e0d6                	sd	s5,64(sp)
      64:	862a                	mv	a2,a0
      66:	fc5a                	sd	s6,56(sp)
      68:	f85e                	sd	s7,48(sp)
      6a:	f462                	sd	s8,40(sp)
      6c:	f066                	sd	s9,32(sp)
  int count = 0;  // Printed character count
      6e:	4501                	li	a0,0
    {
      char pad = ' ';
      int width = 0;  // Field width

      if (*fp != '%')
      70:	02500e93          	li	t4,37
  tohost = c;
      74:	70580837          	lui	a6,0x70580
        {
          whisperPutc('%');
          continue;
        }

      while (*fp == '0')
      78:	03000313          	li	t1,48
        {
          pad = '0';
          fp++;  // Pad zero not yet implented.
        }

      if (*fp == '-')
      7c:	02d00993          	li	s3,45
        {
          fp++;  // Pad right not yet implemented.
        }

      if (*fp == '*')
      80:	02a00913          	li	s2,42
      84:	02000493          	li	s1,32
      88:	00040413          	mv	s0,s0
  tohost = c;
      8c:	4a29                	li	s4,10
      8e:	407282bb          	subw	t0,t0,t2
          char c = digit < 10 ? '0' + digit : 'a' + digit - 10;
      92:	4fa5                	li	t6,9
      char c = '0' + (value % 10);
      94:	4f29                	li	t5,10
  tohost = c;
      96:	02d00a93          	li	s5,45
      if (*fp == 0)
      9a:	00164883          	lbu	a7,1(a2)
      ++fp;  // Skip %
      9e:	00160793          	addi	a5,a2,1
      if (*fp != '%')
      a2:	03d68463          	beq	a3,t4,ca <whisperPrintfImpl+0x84>
  tohost = c;
      a6:	00d80023          	sb	a3,0(a6) # 70580000 <tohost>
          ++count;
      aa:	2505                	addiw	a0,a0,1
          continue;
      ac:	863e                	mv	a2,a5
      if (*fp == 0)
      ae:	86c6                	mv	a3,a7
  for (const char* fp = format; *fp; fp++)
      b0:	f6ed                	bnez	a3,9a <whisperPrintfImpl+0x54>
*/
        }
    }

  return count;
}
      b2:	7426                	ld	s0,104(sp)
      b4:	7486                	ld	s1,96(sp)
      b6:	6966                	ld	s2,88(sp)
      b8:	69c6                	ld	s3,80(sp)
      ba:	6a26                	ld	s4,72(sp)
      bc:	6a86                	ld	s5,64(sp)
      be:	7b62                	ld	s6,56(sp)
      c0:	7bc2                	ld	s7,48(sp)
      c2:	7c22                	ld	s8,40(sp)
      c4:	7c82                	ld	s9,32(sp)
      c6:	6165                	addi	sp,sp,112
      c8:	8082                	ret
      if (*fp == 0)
      ca:	fe0884e3          	beqz	a7,b2 <whisperPrintfImpl+0x6c>
          fp++;  // Pad zero not yet implented.
      ce:	00260e13          	addi	t3,a2,2
      if (*fp == '%')
      d2:	0dd88463          	beq	a7,t4,19a <whisperPrintfImpl+0x154>
      while (*fp == '0')
      d6:	08689de3          	bne	a7,t1,970 <whisperPrintfImpl+0x92a>
      da:	0017c703          	lbu	a4,1(a5)
      de:	863e                	mv	a2,a5
          fp++;  // Pad zero not yet implented.
      e0:	0785                	addi	a5,a5,1
      e2:	86be                	mv	a3,a5
      while (*fp == '0')
      e4:	06671263          	bne	a4,t1,148 <whisperPrintfImpl+0x102>
      e8:	0017c703          	lbu	a4,1(a5)
      ec:	863e                	mv	a2,a5
          fp++;  // Pad zero not yet implented.
      ee:	0785                	addi	a5,a5,1
      while (*fp == '0')
      f0:	04671c63          	bne	a4,t1,148 <whisperPrintfImpl+0x102>
      f4:	0026c703          	lbu	a4,2(a3)
      f8:	863e                	mv	a2,a5
          fp++;  // Pad zero not yet implented.
      fa:	00268793          	addi	a5,a3,2
      while (*fp == '0')
      fe:	04671563          	bne	a4,t1,148 <whisperPrintfImpl+0x102>
     102:	0036c703          	lbu	a4,3(a3)
     106:	863e                	mv	a2,a5
          fp++;  // Pad zero not yet implented.
     108:	00368793          	addi	a5,a3,3
      while (*fp == '0')
     10c:	02671e63          	bne	a4,t1,148 <whisperPrintfImpl+0x102>
     110:	0046c703          	lbu	a4,4(a3)
     114:	863e                	mv	a2,a5
          fp++;  // Pad zero not yet implented.
     116:	00468793          	addi	a5,a3,4
      while (*fp == '0')
     11a:	02671763          	bne	a4,t1,148 <whisperPrintfImpl+0x102>
     11e:	0056c703          	lbu	a4,5(a3)
     122:	863e                	mv	a2,a5
          fp++;  // Pad zero not yet implented.
     124:	00568793          	addi	a5,a3,5
      while (*fp == '0')
     128:	02671063          	bne	a4,t1,148 <whisperPrintfImpl+0x102>
     12c:	0066c703          	lbu	a4,6(a3)
     130:	863e                	mv	a2,a5
          fp++;  // Pad zero not yet implented.
     132:	00668793          	addi	a5,a3,6
      while (*fp == '0')
     136:	00671963          	bne	a4,t1,148 <whisperPrintfImpl+0x102>
     13a:	0076c703          	lbu	a4,7(a3)
     13e:	863e                	mv	a2,a5
          fp++;  // Pad zero not yet implented.
     140:	00768793          	addi	a5,a3,7
      while (*fp == '0')
     144:	f8670be3          	beq	a4,t1,da <whisperPrintfImpl+0x94>
          fp++;  // Pad right not yet implemented.
     148:	0609                	addi	a2,a2,2
          while (*fp >= '0' && *fp <= '9')
     14a:	0017c683          	lbu	a3,1(a5)
      if (*fp == '-')
     14e:	03370863          	beq	a4,s3,17e <whisperPrintfImpl+0x138>
      if (*fp == '*')
     152:	03270d63          	beq	a4,s2,18c <whisperPrintfImpl+0x146>
      else if (*fp >= '0' && *fp <= '9')
     156:	fd070b1b          	addiw	s6,a4,-48
     15a:	0ffb7b93          	andi	s7,s6,255
      int width = 0;  // Field width
     15e:	4e01                	li	t3,0
      else if (*fp >= '0' && *fp <= '9')
     160:	057ff563          	bgeu	t6,s7,1aa <whisperPrintfImpl+0x164>
      switch (*fp)
     164:	fa87079b          	addiw	a5,a4,-88
     168:	0ff7f713          	andi	a4,a5,255
     16c:	f4e4e2e3          	bltu	s1,a4,b0 <whisperPrintfImpl+0x6a>
     170:	00271b93          	slli	s7,a4,0x2
     174:	008b8c33          	add	s8,s7,s0
     178:	000c2c83          	lw	s9,0(s8)
     17c:	8c82                	jr	s9
          while (*fp >= '0' && *fp <= '9')
     17e:	8736                	mv	a4,a3
     180:	0027c683          	lbu	a3,2(a5)
          fp++;  // Pad right not yet implemented.
     184:	87b2                	mv	a5,a2
          while (*fp >= '0' && *fp <= '9')
     186:	0605                	addi	a2,a2,1
      if (*fp == '*')
     188:	fd2717e3          	bne	a4,s2,156 <whisperPrintfImpl+0x110>
          int outWidth = va_arg(ap, int);
     18c:	8736                	mv	a4,a3
     18e:	05a1                	addi	a1,a1,8
          fp++;  // Width not yet implemented.
     190:	0027c683          	lbu	a3,2(a5)
  for (const char* fp = format; *fp; fp++)
     194:	0605                	addi	a2,a2,1
      int width = 0;  // Field width
     196:	4e01                	li	t3,0
     198:	b7f1                	j	164 <whisperPrintfImpl+0x11e>
  tohost = c;
     19a:	00d80023          	sb	a3,0(a6)
  for (const char* fp = format; *fp; fp++)
     19e:	00264683          	lbu	a3,2(a2)
          continue;
     1a2:	8672                	mv	a2,t3
  for (const char* fp = format; *fp; fp++)
     1a4:	ee069be3          	bnez	a3,9a <whisperPrintfImpl+0x54>
     1a8:	b729                	j	b2 <whisperPrintfImpl+0x6c>
     1aa:	0017c683          	lbu	a3,1(a5)
            width = width * 10 + (*fp++ - '0');
     1ae:	002e1c1b          	slliw	s8,t3,0x2
          while (*fp >= '0' && *fp <= '9')
     1b2:	fd06871b          	addiw	a4,a3,-48
            width = width * 10 + (*fp++ - '0');
     1b6:	01cc0cbb          	addw	s9,s8,t3
     1ba:	001c9e1b          	slliw	t3,s9,0x1
          while (*fp >= '0' && *fp <= '9')
     1be:	0ff77c13          	andi	s8,a4,255
     1c2:	863e                	mv	a2,a5
     1c4:	8736                	mv	a4,a3
            width = width * 10 + (*fp++ - '0');
     1c6:	00178b93          	addi	s7,a5,1
  for (const char* fp = format; *fp; fp++)
     1ca:	0027c683          	lbu	a3,2(a5)
            width = width * 10 + (*fp++ - '0');
     1ce:	01cb0e3b          	addw	t3,s6,t3
          while (*fp >= '0' && *fp <= '9')
     1d2:	098fe663          	bltu	t6,s8,25e <whisperPrintfImpl+0x218>
            width = width * 10 + (*fp++ - '0');
     1d6:	002e1b1b          	slliw	s6,t3,0x2
     1da:	01cb063b          	addw	a2,s6,t3
          while (*fp >= '0' && *fp <= '9')
     1de:	fd068c9b          	addiw	s9,a3,-48
     1e2:	fd070c1b          	addiw	s8,a4,-48
            width = width * 10 + (*fp++ - '0');
     1e6:	00161e1b          	slliw	t3,a2,0x1
          while (*fp >= '0' && *fp <= '9')
     1ea:	0ffcfb13          	andi	s6,s9,255
     1ee:	8736                	mv	a4,a3
     1f0:	865e                	mv	a2,s7
  for (const char* fp = format; *fp; fp++)
     1f2:	0037c683          	lbu	a3,3(a5)
            width = width * 10 + (*fp++ - '0');
     1f6:	00278b93          	addi	s7,a5,2
     1fa:	01cc0e3b          	addw	t3,s8,t3
          while (*fp >= '0' && *fp <= '9')
     1fe:	076fe063          	bltu	t6,s6,25e <whisperPrintfImpl+0x218>
            width = width * 10 + (*fp++ - '0');
     202:	002e161b          	slliw	a2,t3,0x2
     206:	01c60cbb          	addw	s9,a2,t3
          while (*fp >= '0' && *fp <= '9')
     20a:	fd068b1b          	addiw	s6,a3,-48
     20e:	fd070c1b          	addiw	s8,a4,-48
            width = width * 10 + (*fp++ - '0');
     212:	001c9e1b          	slliw	t3,s9,0x1
          while (*fp >= '0' && *fp <= '9')
     216:	0ffb7c93          	andi	s9,s6,255
     21a:	8736                	mv	a4,a3
     21c:	865e                	mv	a2,s7
  for (const char* fp = format; *fp; fp++)
     21e:	0047c683          	lbu	a3,4(a5)
            width = width * 10 + (*fp++ - '0');
     222:	00378b93          	addi	s7,a5,3
     226:	01cc0e3b          	addw	t3,s8,t3
          while (*fp >= '0' && *fp <= '9')
     22a:	039fea63          	bltu	t6,s9,25e <whisperPrintfImpl+0x218>
            width = width * 10 + (*fp++ - '0');
     22e:	002e161b          	slliw	a2,t3,0x2
     232:	01c60e3b          	addw	t3,a2,t3
          while (*fp >= '0' && *fp <= '9')
     236:	fd068b1b          	addiw	s6,a3,-48
     23a:	fd070c1b          	addiw	s8,a4,-48
            width = width * 10 + (*fp++ - '0');
     23e:	001e1c9b          	slliw	s9,t3,0x1
     242:	0791                	addi	a5,a5,4
          while (*fp >= '0' && *fp <= '9')
     244:	0ffb7b13          	andi	s6,s6,255
     248:	8736                	mv	a4,a3
     24a:	865e                	mv	a2,s7
  for (const char* fp = format; *fp; fp++)
     24c:	0017c683          	lbu	a3,1(a5)
            width = width * 10 + (*fp++ - '0');
     250:	019c0e3b          	addw	t3,s8,s9
          while (*fp >= '0' && *fp <= '9')
     254:	016fe563          	bltu	t6,s6,25e <whisperPrintfImpl+0x218>
     258:	fd070b1b          	addiw	s6,a4,-48
     25c:	bf89                	j	1ae <whisperPrintfImpl+0x168>
  for (const char* fp = format; *fp; fp++)
     25e:	0609                	addi	a2,a2,2
     260:	b711                	j	164 <whisperPrintfImpl+0x11e>
  unsigned uu = value;
     262:	0005ab03          	lw	s6,0(a1)
     266:	871e                	mv	a4,t2
          count += whisperPrintInt(va_arg(ap, int), width, pad, 16);
     268:	05a1                	addi	a1,a1,8
          char c = digit < 10 ? '0' + digit : 'a' + digit - 10;
     26a:	00fb7c13          	andi	s8,s6,15
     26e:	057c0893          	addi	a7,s8,87
     272:	018fc463          	blt	t6,s8,27a <whisperPrintfImpl+0x234>
     276:	030c0893          	addi	a7,s8,48
          buffer[charCount++] = c;
     27a:	01170023          	sb	a7,0(a4)
          uu >>= 4;
     27e:	004b5b1b          	srliw	s6,s6,0x4
     282:	00e28e3b          	addw	t3,t0,a4
      while (uu);
     286:	0705                	addi	a4,a4,1
     288:	fe0b11e3          	bnez	s6,26a <whisperPrintfImpl+0x224>
  char* p = buffer + charCount - 1;
     28c:	fffe0c9b          	addiw	s9,t3,-1
     290:	020c9793          	slli	a5,s9,0x20
     294:	0207dc13          	srli	s8,a5,0x20
     298:	fffc4b93          	not	s7,s8
     29c:	fffe0893          	addi	a7,t3,-1
     2a0:	41700b33          	neg	s6,s7
     2a4:	011387b3          	add	a5,t2,a7
  for (unsigned i = 0; i < charCount; ++i)
     2a8:	007b7713          	andi	a4,s6,7
     2ac:	01778cb3          	add	s9,a5,s7
     2b0:	cb25                	beqz	a4,320 <whisperPrintfImpl+0x2da>
     2b2:	4c05                	li	s8,1
     2b4:	05870f63          	beq	a4,s8,312 <whisperPrintfImpl+0x2cc>
     2b8:	4b89                	li	s7,2
     2ba:	05770763          	beq	a4,s7,308 <whisperPrintfImpl+0x2c2>
     2be:	488d                	li	a7,3
     2c0:	03170f63          	beq	a4,a7,2fe <whisperPrintfImpl+0x2b8>
     2c4:	4b11                	li	s6,4
     2c6:	03670763          	beq	a4,s6,2f4 <whisperPrintfImpl+0x2ae>
     2ca:	4c15                	li	s8,5
     2cc:	01870f63          	beq	a4,s8,2ea <whisperPrintfImpl+0x2a4>
     2d0:	4b99                	li	s7,6
     2d2:	01770763          	beq	a4,s7,2e0 <whisperPrintfImpl+0x29a>
    whisperPutc(*p--);
     2d6:	0007c703          	lbu	a4,0(a5)
     2da:	17fd                	addi	a5,a5,-1
  tohost = c;
     2dc:	00e80023          	sb	a4,0(a6)
    whisperPutc(*p--);
     2e0:	0007c883          	lbu	a7,0(a5)
     2e4:	17fd                	addi	a5,a5,-1
  tohost = c;
     2e6:	01180023          	sb	a7,0(a6)
    whisperPutc(*p--);
     2ea:	0007cb03          	lbu	s6,0(a5)
     2ee:	17fd                	addi	a5,a5,-1
  tohost = c;
     2f0:	01680023          	sb	s6,0(a6)
    whisperPutc(*p--);
     2f4:	0007cc03          	lbu	s8,0(a5)
     2f8:	17fd                	addi	a5,a5,-1
  tohost = c;
     2fa:	01880023          	sb	s8,0(a6)
    whisperPutc(*p--);
     2fe:	0007cb83          	lbu	s7,0(a5)
     302:	17fd                	addi	a5,a5,-1
  tohost = c;
     304:	01780023          	sb	s7,0(a6)
    whisperPutc(*p--);
     308:	0007c703          	lbu	a4,0(a5)
     30c:	17fd                	addi	a5,a5,-1
  tohost = c;
     30e:	00e80023          	sb	a4,0(a6)
    whisperPutc(*p--);
     312:	0007c883          	lbu	a7,0(a5)
     316:	17fd                	addi	a5,a5,-1
  tohost = c;
     318:	01180023          	sb	a7,0(a6)
  for (unsigned i = 0; i < charCount; ++i)
     31c:	05978563          	beq	a5,s9,366 <whisperPrintfImpl+0x320>
    whisperPutc(*p--);
     320:	0007cb03          	lbu	s6,0(a5)
     324:	fff7cc03          	lbu	s8,-1(a5)
     328:	ffe7c703          	lbu	a4,-2(a5)
  tohost = c;
     32c:	01680023          	sb	s6,0(a6)
    whisperPutc(*p--);
     330:	ffd7c883          	lbu	a7,-3(a5)
  tohost = c;
     334:	01880023          	sb	s8,0(a6)
    whisperPutc(*p--);
     338:	ffc7cb83          	lbu	s7,-4(a5)
  tohost = c;
     33c:	00e80023          	sb	a4,0(a6)
    whisperPutc(*p--);
     340:	ffb7cc03          	lbu	s8,-5(a5)
  tohost = c;
     344:	01180023          	sb	a7,0(a6)
    whisperPutc(*p--);
     348:	ffa7cb03          	lbu	s6,-6(a5)
  tohost = c;
     34c:	01780023          	sb	s7,0(a6)
    whisperPutc(*p--);
     350:	ff97c703          	lbu	a4,-7(a5)
  tohost = c;
     354:	01880023          	sb	s8,0(a6)
     358:	01680023          	sb	s6,0(a6)
    whisperPutc(*p--);
     35c:	17e1                	addi	a5,a5,-8
  tohost = c;
     35e:	00e80023          	sb	a4,0(a6)
  for (unsigned i = 0; i < charCount; ++i)
     362:	fb979fe3          	bne	a5,s9,320 <whisperPrintfImpl+0x2da>
          count += whisperPrintInt(va_arg(ap, int), width, pad, 16);
     366:	01c5053b          	addw	a0,a0,t3
  for (const char* fp = format; *fp; fp++)
     36a:	d20698e3          	bnez	a3,9a <whisperPrintfImpl+0x54>
     36e:	b391                	j	b2 <whisperPrintfImpl+0x6c>
          count += whisperPrintUnsigned((unsigned) va_arg(ap, unsigned), width, pad);
     370:	0005ab83          	lw	s7,0(a1)
     374:	8b1e                	mv	s6,t2
     376:	05a1                	addi	a1,a1,8
  int charCount = 0;
     378:	4781                	li	a5,0
      char c = '0' + (value % 10);
     37a:	03ebfc3b          	remuw	s8,s7,t5
     37e:	873e                	mv	a4,a5
      buffer[charCount++] = c;
     380:	2785                	addiw	a5,a5,1
      char c = '0' + (value % 10);
     382:	030c0c9b          	addiw	s9,s8,48
      buffer[charCount++] = c;
     386:	019b0023          	sb	s9,0(s6)
      value = value / 10;
     38a:	03ebdc3b          	divuw	s8,s7,t5
  while (value);
     38e:	057ff763          	bgeu	t6,s7,3dc <whisperPrintfImpl+0x396>
      value = value / 10;
     392:	873e                	mv	a4,a5
      buffer[charCount++] = c;
     394:	2785                	addiw	a5,a5,1
      char c = '0' + (value % 10);
     396:	03ec7bbb          	remuw	s7,s8,t5
     39a:	030b8c9b          	addiw	s9,s7,48
      buffer[charCount++] = c;
     39e:	019b00a3          	sb	s9,1(s6)
      value = value / 10;
     3a2:	03ec5bbb          	divuw	s7,s8,t5
  while (value);
     3a6:	038ffb63          	bgeu	t6,s8,3dc <whisperPrintfImpl+0x396>
      value = value / 10;
     3aa:	873e                	mv	a4,a5
      buffer[charCount++] = c;
     3ac:	2785                	addiw	a5,a5,1
      char c = '0' + (value % 10);
     3ae:	03ebfc3b          	remuw	s8,s7,t5
     3b2:	030c0c9b          	addiw	s9,s8,48
      buffer[charCount++] = c;
     3b6:	019b0123          	sb	s9,2(s6)
      value = value / 10;
     3ba:	03ebdc3b          	divuw	s8,s7,t5
  while (value);
     3be:	017fff63          	bgeu	t6,s7,3dc <whisperPrintfImpl+0x396>
     3c2:	0b11                	addi	s6,s6,4
     3c4:	873e                	mv	a4,a5
      buffer[charCount++] = c;
     3c6:	2785                	addiw	a5,a5,1
      char c = '0' + (value % 10);
     3c8:	03ec7bbb          	remuw	s7,s8,t5
     3cc:	030b8c9b          	addiw	s9,s7,48
      buffer[charCount++] = c;
     3d0:	ff9b0fa3          	sb	s9,-1(s6)
      value = value / 10;
     3d4:	03ec5bbb          	divuw	s7,s8,t5
  while (value);
     3d8:	fb8fe1e3          	bltu	t6,s8,37a <whisperPrintfImpl+0x334>
  for (int i = charCount; i < width; ++i)
     3dc:	8b3e                	mv	s6,a5
     3de:	09c7d563          	bge	a5,t3,468 <whisperPrintfImpl+0x422>
     3e2:	40fe0c33          	sub	s8,t3,a5
     3e6:	007c7c93          	andi	s9,s8,7
     3ea:	040c8c63          	beqz	s9,442 <whisperPrintfImpl+0x3fc>
     3ee:	4b85                	li	s7,1
     3f0:	057c8463          	beq	s9,s7,438 <whisperPrintfImpl+0x3f2>
     3f4:	4c09                	li	s8,2
     3f6:	038c8e63          	beq	s9,s8,432 <whisperPrintfImpl+0x3ec>
     3fa:	4b8d                	li	s7,3
     3fc:	037c8863          	beq	s9,s7,42c <whisperPrintfImpl+0x3e6>
     400:	4c11                	li	s8,4
     402:	038c8263          	beq	s9,s8,426 <whisperPrintfImpl+0x3e0>
     406:	4b95                	li	s7,5
     408:	017c8c63          	beq	s9,s7,420 <whisperPrintfImpl+0x3da>
     40c:	4c19                	li	s8,6
     40e:	018c8663          	beq	s9,s8,41a <whisperPrintfImpl+0x3d4>
  tohost = c;
     412:	01180023          	sb	a7,0(a6)
  for (int i = charCount; i < width; ++i)
     416:	00178b1b          	addiw	s6,a5,1
  tohost = c;
     41a:	01180023          	sb	a7,0(a6)
  for (int i = charCount; i < width; ++i)
     41e:	2b05                	addiw	s6,s6,1
  tohost = c;
     420:	01180023          	sb	a7,0(a6)
  for (int i = charCount; i < width; ++i)
     424:	2b05                	addiw	s6,s6,1
  tohost = c;
     426:	01180023          	sb	a7,0(a6)
  for (int i = charCount; i < width; ++i)
     42a:	2b05                	addiw	s6,s6,1
  tohost = c;
     42c:	01180023          	sb	a7,0(a6)
  for (int i = charCount; i < width; ++i)
     430:	2b05                	addiw	s6,s6,1
  tohost = c;
     432:	01180023          	sb	a7,0(a6)
  for (int i = charCount; i < width; ++i)
     436:	2b05                	addiw	s6,s6,1
  tohost = c;
     438:	01180023          	sb	a7,0(a6)
  for (int i = charCount; i < width; ++i)
     43c:	2b05                	addiw	s6,s6,1
     43e:	036e0563          	beq	t3,s6,468 <whisperPrintfImpl+0x422>
  tohost = c;
     442:	01180023          	sb	a7,0(a6)
     446:	01180023          	sb	a7,0(a6)
     44a:	01180023          	sb	a7,0(a6)
     44e:	01180023          	sb	a7,0(a6)
     452:	01180023          	sb	a7,0(a6)
     456:	01180023          	sb	a7,0(a6)
     45a:	01180023          	sb	a7,0(a6)
     45e:	01180023          	sb	a7,0(a6)
  for (int i = charCount; i < width; ++i)
     462:	2b21                	addiw	s6,s6,8
     464:	fd6e1fe3          	bne	t3,s6,442 <whisperPrintfImpl+0x3fc>
  char* p = buffer + charCount - 1;
     468:	fff74e13          	not	t3,a4
     46c:	41c008b3          	neg	a7,t3
     470:	fff78713          	addi	a4,a5,-1
     474:	971e                	add	a4,a4,t2
  for (int i = 0; i < charCount; ++i)
     476:	0078fc93          	andi	s9,a7,7
     47a:	01c70c33          	add	s8,a4,t3
     47e:	060c8963          	beqz	s9,4f0 <whisperPrintfImpl+0x4aa>
     482:	4b85                	li	s7,1
     484:	057c8f63          	beq	s9,s7,4e2 <whisperPrintfImpl+0x49c>
     488:	4b09                	li	s6,2
     48a:	056c8763          	beq	s9,s6,4d8 <whisperPrintfImpl+0x492>
     48e:	4e0d                	li	t3,3
     490:	03cc8f63          	beq	s9,t3,4ce <whisperPrintfImpl+0x488>
     494:	4891                	li	a7,4
     496:	031c8763          	beq	s9,a7,4c4 <whisperPrintfImpl+0x47e>
     49a:	4b95                	li	s7,5
     49c:	017c8f63          	beq	s9,s7,4ba <whisperPrintfImpl+0x474>
     4a0:	4b19                	li	s6,6
     4a2:	016c8763          	beq	s9,s6,4b0 <whisperPrintfImpl+0x46a>
    whisperPutc(*p--);
     4a6:	00074c83          	lbu	s9,0(a4)
     4aa:	177d                	addi	a4,a4,-1
  tohost = c;
     4ac:	01980023          	sb	s9,0(a6)
    whisperPutc(*p--);
     4b0:	00074e03          	lbu	t3,0(a4)
     4b4:	177d                	addi	a4,a4,-1
  tohost = c;
     4b6:	01c80023          	sb	t3,0(a6)
    whisperPutc(*p--);
     4ba:	00074883          	lbu	a7,0(a4)
     4be:	177d                	addi	a4,a4,-1
  tohost = c;
     4c0:	01180023          	sb	a7,0(a6)
    whisperPutc(*p--);
     4c4:	00074b83          	lbu	s7,0(a4)
     4c8:	177d                	addi	a4,a4,-1
  tohost = c;
     4ca:	01780023          	sb	s7,0(a6)
    whisperPutc(*p--);
     4ce:	00074b03          	lbu	s6,0(a4)
     4d2:	177d                	addi	a4,a4,-1
  tohost = c;
     4d4:	01680023          	sb	s6,0(a6)
    whisperPutc(*p--);
     4d8:	00074c83          	lbu	s9,0(a4)
     4dc:	177d                	addi	a4,a4,-1
  tohost = c;
     4de:	01980023          	sb	s9,0(a6)
    whisperPutc(*p--);
     4e2:	00074e03          	lbu	t3,0(a4)
     4e6:	177d                	addi	a4,a4,-1
  tohost = c;
     4e8:	01c80023          	sb	t3,0(a6)
  for (int i = 0; i < charCount; ++i)
     4ec:	05870563          	beq	a4,s8,536 <whisperPrintfImpl+0x4f0>
    whisperPutc(*p--);
     4f0:	00074b03          	lbu	s6,0(a4)
     4f4:	fff74b83          	lbu	s7,-1(a4)
     4f8:	ffe74883          	lbu	a7,-2(a4)
  tohost = c;
     4fc:	01680023          	sb	s6,0(a6)
    whisperPutc(*p--);
     500:	ffd74c83          	lbu	s9,-3(a4)
  tohost = c;
     504:	01780023          	sb	s7,0(a6)
    whisperPutc(*p--);
     508:	ffc74e03          	lbu	t3,-4(a4)
  tohost = c;
     50c:	01180023          	sb	a7,0(a6)
    whisperPutc(*p--);
     510:	ffb74b83          	lbu	s7,-5(a4)
  tohost = c;
     514:	01980023          	sb	s9,0(a6)
    whisperPutc(*p--);
     518:	ffa74b03          	lbu	s6,-6(a4)
  tohost = c;
     51c:	01c80023          	sb	t3,0(a6)
    whisperPutc(*p--);
     520:	ff974883          	lbu	a7,-7(a4)
  tohost = c;
     524:	01780023          	sb	s7,0(a6)
     528:	01680023          	sb	s6,0(a6)
    whisperPutc(*p--);
     52c:	1761                	addi	a4,a4,-8
  tohost = c;
     52e:	01180023          	sb	a7,0(a6)
  for (int i = 0; i < charCount; ++i)
     532:	fb871fe3          	bne	a4,s8,4f0 <whisperPrintfImpl+0x4aa>
          count += whisperPrintUnsigned((unsigned) va_arg(ap, unsigned), width, pad);
     536:	9d3d                	addw	a0,a0,a5
  for (const char* fp = format; *fp; fp++)
     538:	b60691e3          	bnez	a3,9a <whisperPrintfImpl+0x54>
     53c:	be9d                	j	b2 <whisperPrintfImpl+0x6c>
          count += whisperPuts(va_arg(ap, char*));
     53e:	619c                	ld	a5,0(a1)
     540:	05a1                	addi	a1,a1,8
  while (*s)
     542:	0007cc03          	lbu	s8,0(a5)
     546:	060c0263          	beqz	s8,5aa <whisperPrintfImpl+0x564>
  tohost = c;
     54a:	01880023          	sb	s8,0(a6)
  while (*s)
     54e:	0017cc03          	lbu	s8,1(a5)
     552:	040c0c63          	beqz	s8,5aa <whisperPrintfImpl+0x564>
  tohost = c;
     556:	01880023          	sb	s8,0(a6)
  while (*s)
     55a:	0027c703          	lbu	a4,2(a5)
     55e:	c731                	beqz	a4,5aa <whisperPrintfImpl+0x564>
  tohost = c;
     560:	00e80023          	sb	a4,0(a6)
  while (*s)
     564:	0037cc83          	lbu	s9,3(a5)
     568:	040c8163          	beqz	s9,5aa <whisperPrintfImpl+0x564>
  tohost = c;
     56c:	01980023          	sb	s9,0(a6)
  while (*s)
     570:	0047ce03          	lbu	t3,4(a5)
     574:	020e0b63          	beqz	t3,5aa <whisperPrintfImpl+0x564>
  tohost = c;
     578:	01c80023          	sb	t3,0(a6)
  while (*s)
     57c:	0057cb83          	lbu	s7,5(a5)
     580:	020b8563          	beqz	s7,5aa <whisperPrintfImpl+0x564>
  tohost = c;
     584:	01780023          	sb	s7,0(a6)
  while (*s)
     588:	0067cb03          	lbu	s6,6(a5)
     58c:	000b0f63          	beqz	s6,5aa <whisperPrintfImpl+0x564>
  tohost = c;
     590:	01680023          	sb	s6,0(a6)
  while (*s)
     594:	0077c883          	lbu	a7,7(a5)
     598:	00088963          	beqz	a7,5aa <whisperPrintfImpl+0x564>
    whisperPutc(*s++);
     59c:	07a1                	addi	a5,a5,8
  tohost = c;
     59e:	01180023          	sb	a7,0(a6)
  while (*s)
     5a2:	0007cc03          	lbu	s8,0(a5)
     5a6:	fa0c12e3          	bnez	s8,54a <whisperPrintfImpl+0x504>
  tohost = c;
     5aa:	01480023          	sb	s4,0(a6)
          count += whisperPuts(va_arg(ap, char*));
     5ae:	2505                	addiw	a0,a0,1
  for (const char* fp = format; *fp; fp++)
     5b0:	ae0695e3          	bnez	a3,9a <whisperPrintfImpl+0x54>
     5b4:	bcfd                	j	b2 <whisperPrintfImpl+0x6c>
  unsigned uu = value;
     5b6:	0005ab03          	lw	s6,0(a1)
     5ba:	889e                	mv	a7,t2
          count += whisperPrintInt(va_arg(ap, int), width, pad, 8);
     5bc:	05a1                	addi	a1,a1,8
          char c = '0' + (uu & 7);
     5be:	007b7713          	andi	a4,s6,7
     5c2:	03070c9b          	addiw	s9,a4,48
          buffer[charCount++] = c;
     5c6:	01988023          	sb	s9,0(a7)
          uu >>= 3;
     5ca:	003b5b9b          	srliw	s7,s6,0x3
     5ce:	0112873b          	addw	a4,t0,a7
      while (uu);
     5d2:	00188e13          	addi	t3,a7,1
     5d6:	0c0b8263          	beqz	s7,69a <whisperPrintfImpl+0x654>
          char c = '0' + (uu & 7);
     5da:	007bfb13          	andi	s6,s7,7
     5de:	030b079b          	addiw	a5,s6,48
          buffer[charCount++] = c;
     5e2:	00f880a3          	sb	a5,1(a7)
          uu >>= 3;
     5e6:	003bdc13          	srli	s8,s7,0x3
     5ea:	01c2873b          	addw	a4,t0,t3
      while (uu);
     5ee:	00288c93          	addi	s9,a7,2
     5f2:	0a0c0463          	beqz	s8,69a <whisperPrintfImpl+0x654>
          char c = '0' + (uu & 7);
     5f6:	007c7713          	andi	a4,s8,7
     5fa:	03070b9b          	addiw	s7,a4,48
          buffer[charCount++] = c;
     5fe:	01788123          	sb	s7,2(a7)
          uu >>= 3;
     602:	003c5b13          	srli	s6,s8,0x3
     606:	0192873b          	addw	a4,t0,s9
      while (uu);
     60a:	00388e13          	addi	t3,a7,3
     60e:	080b0663          	beqz	s6,69a <whisperPrintfImpl+0x654>
          char c = '0' + (uu & 7);
     612:	007b7793          	andi	a5,s6,7
     616:	03078c1b          	addiw	s8,a5,48
          buffer[charCount++] = c;
     61a:	018881a3          	sb	s8,3(a7)
          uu >>= 3;
     61e:	003b5c93          	srli	s9,s6,0x3
     622:	01c2873b          	addw	a4,t0,t3
      while (uu);
     626:	00488b93          	addi	s7,a7,4
     62a:	060c8863          	beqz	s9,69a <whisperPrintfImpl+0x654>
          char c = '0' + (uu & 7);
     62e:	007cf713          	andi	a4,s9,7
     632:	03070b1b          	addiw	s6,a4,48
          buffer[charCount++] = c;
     636:	01688223          	sb	s6,4(a7)
          uu >>= 3;
     63a:	003cd793          	srli	a5,s9,0x3
     63e:	0172873b          	addw	a4,t0,s7
      while (uu);
     642:	00588e13          	addi	t3,a7,5
     646:	cbb1                	beqz	a5,69a <whisperPrintfImpl+0x654>
          char c = '0' + (uu & 7);
     648:	0077fc13          	andi	s8,a5,7
     64c:	030c0c9b          	addiw	s9,s8,48
          buffer[charCount++] = c;
     650:	019882a3          	sb	s9,5(a7)
          uu >>= 3;
     654:	0037db93          	srli	s7,a5,0x3
     658:	01c2873b          	addw	a4,t0,t3
      while (uu);
     65c:	00688b13          	addi	s6,a7,6
     660:	020b8d63          	beqz	s7,69a <whisperPrintfImpl+0x654>
          char c = '0' + (uu & 7);
     664:	007bf713          	andi	a4,s7,7
     668:	0307079b          	addiw	a5,a4,48
          buffer[charCount++] = c;
     66c:	00f88323          	sb	a5,6(a7)
          uu >>= 3;
     670:	003bdc13          	srli	s8,s7,0x3
     674:	0162873b          	addw	a4,t0,s6
      while (uu);
     678:	00788e13          	addi	t3,a7,7
     67c:	000c0f63          	beqz	s8,69a <whisperPrintfImpl+0x654>
          char c = '0' + (uu & 7);
     680:	007c7c93          	andi	s9,s8,7
     684:	030c8b9b          	addiw	s7,s9,48
          buffer[charCount++] = c;
     688:	017883a3          	sb	s7,7(a7)
          uu >>= 3;
     68c:	003c5b13          	srli	s6,s8,0x3
     690:	01c2873b          	addw	a4,t0,t3
      while (uu);
     694:	08a1                	addi	a7,a7,8
     696:	f20b14e3          	bnez	s6,5be <whisperPrintfImpl+0x578>
  char* p = buffer + charCount - 1;
     69a:	fff7079b          	addiw	a5,a4,-1
     69e:	02079c13          	slli	s8,a5,0x20
     6a2:	020c5e13          	srli	t3,s8,0x20
     6a6:	fffe4c93          	not	s9,t3
     6aa:	fff70b93          	addi	s7,a4,-1
     6ae:	41900b33          	neg	s6,s9
     6b2:	017387b3          	add	a5,t2,s7
  for (unsigned i = 0; i < charCount; ++i)
     6b6:	007b7893          	andi	a7,s6,7
     6ba:	01978c33          	add	s8,a5,s9
     6be:	06088963          	beqz	a7,730 <whisperPrintfImpl+0x6ea>
     6c2:	4e05                	li	t3,1
     6c4:	05c88f63          	beq	a7,t3,722 <whisperPrintfImpl+0x6dc>
     6c8:	4c89                	li	s9,2
     6ca:	05988763          	beq	a7,s9,718 <whisperPrintfImpl+0x6d2>
     6ce:	4b8d                	li	s7,3
     6d0:	03788f63          	beq	a7,s7,70e <whisperPrintfImpl+0x6c8>
     6d4:	4b11                	li	s6,4
     6d6:	03688763          	beq	a7,s6,704 <whisperPrintfImpl+0x6be>
     6da:	4e15                	li	t3,5
     6dc:	01c88f63          	beq	a7,t3,6fa <whisperPrintfImpl+0x6b4>
     6e0:	4c99                	li	s9,6
     6e2:	01988763          	beq	a7,s9,6f0 <whisperPrintfImpl+0x6aa>
    whisperPutc(*p--);
     6e6:	0007c883          	lbu	a7,0(a5)
     6ea:	17fd                	addi	a5,a5,-1
  tohost = c;
     6ec:	01180023          	sb	a7,0(a6)
    whisperPutc(*p--);
     6f0:	0007cb83          	lbu	s7,0(a5)
     6f4:	17fd                	addi	a5,a5,-1
  tohost = c;
     6f6:	01780023          	sb	s7,0(a6)
    whisperPutc(*p--);
     6fa:	0007cb03          	lbu	s6,0(a5)
     6fe:	17fd                	addi	a5,a5,-1
  tohost = c;
     700:	01680023          	sb	s6,0(a6)
    whisperPutc(*p--);
     704:	0007ce03          	lbu	t3,0(a5)
     708:	17fd                	addi	a5,a5,-1
  tohost = c;
     70a:	01c80023          	sb	t3,0(a6)
    whisperPutc(*p--);
     70e:	0007cc83          	lbu	s9,0(a5)
     712:	17fd                	addi	a5,a5,-1
  tohost = c;
     714:	01980023          	sb	s9,0(a6)
    whisperPutc(*p--);
     718:	0007c883          	lbu	a7,0(a5)
     71c:	17fd                	addi	a5,a5,-1
  tohost = c;
     71e:	01180023          	sb	a7,0(a6)
    whisperPutc(*p--);
     722:	0007cb83          	lbu	s7,0(a5)
     726:	17fd                	addi	a5,a5,-1
  tohost = c;
     728:	01780023          	sb	s7,0(a6)
  for (unsigned i = 0; i < charCount; ++i)
     72c:	04fc0563          	beq	s8,a5,776 <whisperPrintfImpl+0x730>
    whisperPutc(*p--);
     730:	0007cb03          	lbu	s6,0(a5)
     734:	fff7ce03          	lbu	t3,-1(a5)
     738:	ffe7cc83          	lbu	s9,-2(a5)
  tohost = c;
     73c:	01680023          	sb	s6,0(a6)
    whisperPutc(*p--);
     740:	ffd7cb03          	lbu	s6,-3(a5)
  tohost = c;
     744:	01c80023          	sb	t3,0(a6)
    whisperPutc(*p--);
     748:	ffc7cb83          	lbu	s7,-4(a5)
  tohost = c;
     74c:	01980023          	sb	s9,0(a6)
    whisperPutc(*p--);
     750:	ffb7c883          	lbu	a7,-5(a5)
  tohost = c;
     754:	01680023          	sb	s6,0(a6)
    whisperPutc(*p--);
     758:	ffa7ce03          	lbu	t3,-6(a5)
  tohost = c;
     75c:	01780023          	sb	s7,0(a6)
    whisperPutc(*p--);
     760:	ff97cc83          	lbu	s9,-7(a5)
  tohost = c;
     764:	01180023          	sb	a7,0(a6)
     768:	01c80023          	sb	t3,0(a6)
    whisperPutc(*p--);
     76c:	17e1                	addi	a5,a5,-8
  tohost = c;
     76e:	01980023          	sb	s9,0(a6)
  for (unsigned i = 0; i < charCount; ++i)
     772:	fafc1fe3          	bne	s8,a5,730 <whisperPrintfImpl+0x6ea>
          count += whisperPrintInt(va_arg(ap, int), width, pad, 8);
     776:	9d39                	addw	a0,a0,a4
  for (const char* fp = format; *fp; fp++)
     778:	920691e3          	bnez	a3,9a <whisperPrintfImpl+0x54>
     77c:	ba1d                	j	b2 <whisperPrintfImpl+0x6c>
          count += whisperPrintDecimal(va_arg(ap, int), width, pad);
     77e:	0005ac03          	lw	s8,0(a1)
     782:	05a1                	addi	a1,a1,8
  if (neg)
     784:	8762                	mv	a4,s8
     786:	000c5763          	bgez	s8,794 <whisperPrintfImpl+0x74e>
      value = -value;
     78a:	4180073b          	negw	a4,s8
  tohost = c;
     78e:	01580023          	sb	s5,0(a6)
      width--;
     792:	3e7d                	addiw	t3,t3,-1
     794:	8c9e                	mv	s9,t2
     796:	4781                	li	a5,0
      value = value / 10;
     798:	03e74b3b          	divw	s6,a4,t5
     79c:	8bbe                	mv	s7,a5
      buffer[charCount++] = c;
     79e:	2785                	addiw	a5,a5,1
      char c = '0' + (value % 10);
     7a0:	03e7673b          	remw	a4,a4,t5
     7a4:	0307071b          	addiw	a4,a4,48
      buffer[charCount++] = c;
     7a8:	00ec8023          	sb	a4,0(s9)
  while (value);
     7ac:	040b0563          	beqz	s6,7f6 <whisperPrintfImpl+0x7b0>
      value = value / 10;
     7b0:	03eb473b          	divw	a4,s6,t5
      buffer[charCount++] = c;
     7b4:	8bbe                	mv	s7,a5
     7b6:	2785                	addiw	a5,a5,1
      char c = '0' + (value % 10);
     7b8:	03eb6b3b          	remw	s6,s6,t5
     7bc:	030b0b1b          	addiw	s6,s6,48
      buffer[charCount++] = c;
     7c0:	016c80a3          	sb	s6,1(s9)
  while (value);
     7c4:	cb0d                	beqz	a4,7f6 <whisperPrintfImpl+0x7b0>
      value = value / 10;
     7c6:	03e74b3b          	divw	s6,a4,t5
      buffer[charCount++] = c;
     7ca:	8bbe                	mv	s7,a5
     7cc:	2785                	addiw	a5,a5,1
      char c = '0' + (value % 10);
     7ce:	03e7673b          	remw	a4,a4,t5
     7d2:	0307071b          	addiw	a4,a4,48
      buffer[charCount++] = c;
     7d6:	00ec8123          	sb	a4,2(s9)
  while (value);
     7da:	000b0e63          	beqz	s6,7f6 <whisperPrintfImpl+0x7b0>
      value = value / 10;
     7de:	03eb473b          	divw	a4,s6,t5
  while (value);
     7e2:	0c91                	addi	s9,s9,4
     7e4:	8bbe                	mv	s7,a5
      buffer[charCount++] = c;
     7e6:	2785                	addiw	a5,a5,1
      char c = '0' + (value % 10);
     7e8:	03eb6b3b          	remw	s6,s6,t5
     7ec:	030b0b1b          	addiw	s6,s6,48
      buffer[charCount++] = c;
     7f0:	ff6c8fa3          	sb	s6,-1(s9)
  while (value);
     7f4:	f355                	bnez	a4,798 <whisperPrintfImpl+0x752>
  for (int i = charCount; i < width; ++i)
     7f6:	873e                	mv	a4,a5
     7f8:	09c7d563          	bge	a5,t3,882 <whisperPrintfImpl+0x83c>
     7fc:	40fe0cb3          	sub	s9,t3,a5
     800:	007cfb13          	andi	s6,s9,7
     804:	040b0c63          	beqz	s6,85c <whisperPrintfImpl+0x816>
     808:	4c85                	li	s9,1
     80a:	059b0463          	beq	s6,s9,852 <whisperPrintfImpl+0x80c>
     80e:	4c89                	li	s9,2
     810:	039b0e63          	beq	s6,s9,84c <whisperPrintfImpl+0x806>
     814:	4c8d                	li	s9,3
     816:	039b0863          	beq	s6,s9,846 <whisperPrintfImpl+0x800>
     81a:	4c91                	li	s9,4
     81c:	039b0263          	beq	s6,s9,840 <whisperPrintfImpl+0x7fa>
     820:	4c95                	li	s9,5
     822:	019b0c63          	beq	s6,s9,83a <whisperPrintfImpl+0x7f4>
     826:	4c99                	li	s9,6
     828:	019b0663          	beq	s6,s9,834 <whisperPrintfImpl+0x7ee>
  tohost = c;
     82c:	01180023          	sb	a7,0(a6)
  for (int i = charCount; i < width; ++i)
     830:	0017871b          	addiw	a4,a5,1
  tohost = c;
     834:	01180023          	sb	a7,0(a6)
  for (int i = charCount; i < width; ++i)
     838:	2705                	addiw	a4,a4,1
  tohost = c;
     83a:	01180023          	sb	a7,0(a6)
  for (int i = charCount; i < width; ++i)
     83e:	2705                	addiw	a4,a4,1
  tohost = c;
     840:	01180023          	sb	a7,0(a6)
  for (int i = charCount; i < width; ++i)
     844:	2705                	addiw	a4,a4,1
  tohost = c;
     846:	01180023          	sb	a7,0(a6)
  for (int i = charCount; i < width; ++i)
     84a:	2705                	addiw	a4,a4,1
  tohost = c;
     84c:	01180023          	sb	a7,0(a6)
  for (int i = charCount; i < width; ++i)
     850:	2705                	addiw	a4,a4,1
  tohost = c;
     852:	01180023          	sb	a7,0(a6)
  for (int i = charCount; i < width; ++i)
     856:	2705                	addiw	a4,a4,1
     858:	03c70563          	beq	a4,t3,882 <whisperPrintfImpl+0x83c>
  tohost = c;
     85c:	01180023          	sb	a7,0(a6)
     860:	01180023          	sb	a7,0(a6)
     864:	01180023          	sb	a7,0(a6)
     868:	01180023          	sb	a7,0(a6)
     86c:	01180023          	sb	a7,0(a6)
     870:	01180023          	sb	a7,0(a6)
     874:	01180023          	sb	a7,0(a6)
     878:	01180023          	sb	a7,0(a6)
  for (int i = charCount; i < width; ++i)
     87c:	2721                	addiw	a4,a4,8
     87e:	fdc71fe3          	bne	a4,t3,85c <whisperPrintfImpl+0x816>
  char* p = buffer + charCount - 1;
     882:	fffbc893          	not	a7,s7
     886:	41100e33          	neg	t3,a7
     88a:	fff78b13          	addi	s6,a5,-1
     88e:	01638733          	add	a4,t2,s6
  for (int i = 0; i < charCount; ++i)
     892:	007e7c93          	andi	s9,t3,7
     896:	98ba                	add	a7,a7,a4
     898:	060c8963          	beqz	s9,90a <whisperPrintfImpl+0x8c4>
     89c:	4b05                	li	s6,1
     89e:	056c8f63          	beq	s9,s6,8fc <whisperPrintfImpl+0x8b6>
     8a2:	4e09                	li	t3,2
     8a4:	05cc8763          	beq	s9,t3,8f2 <whisperPrintfImpl+0x8ac>
     8a8:	4b0d                	li	s6,3
     8aa:	036c8f63          	beq	s9,s6,8e8 <whisperPrintfImpl+0x8a2>
     8ae:	4e11                	li	t3,4
     8b0:	03cc8763          	beq	s9,t3,8de <whisperPrintfImpl+0x898>
     8b4:	4b15                	li	s6,5
     8b6:	016c8f63          	beq	s9,s6,8d4 <whisperPrintfImpl+0x88e>
     8ba:	4e19                	li	t3,6
     8bc:	01cc8763          	beq	s9,t3,8ca <whisperPrintfImpl+0x884>
    whisperPutc(*p--);
     8c0:	00074c83          	lbu	s9,0(a4)
     8c4:	177d                	addi	a4,a4,-1
  tohost = c;
     8c6:	01980023          	sb	s9,0(a6)
    whisperPutc(*p--);
     8ca:	00074b03          	lbu	s6,0(a4)
     8ce:	177d                	addi	a4,a4,-1
  tohost = c;
     8d0:	01680023          	sb	s6,0(a6)
    whisperPutc(*p--);
     8d4:	00074e03          	lbu	t3,0(a4)
     8d8:	177d                	addi	a4,a4,-1
  tohost = c;
     8da:	01c80023          	sb	t3,0(a6)
    whisperPutc(*p--);
     8de:	00074c83          	lbu	s9,0(a4)
     8e2:	177d                	addi	a4,a4,-1
  tohost = c;
     8e4:	01980023          	sb	s9,0(a6)
    whisperPutc(*p--);
     8e8:	00074b03          	lbu	s6,0(a4)
     8ec:	177d                	addi	a4,a4,-1
  tohost = c;
     8ee:	01680023          	sb	s6,0(a6)
    whisperPutc(*p--);
     8f2:	00074e03          	lbu	t3,0(a4)
     8f6:	177d                	addi	a4,a4,-1
  tohost = c;
     8f8:	01c80023          	sb	t3,0(a6)
    whisperPutc(*p--);
     8fc:	00074c83          	lbu	s9,0(a4)
     900:	177d                	addi	a4,a4,-1
  tohost = c;
     902:	01980023          	sb	s9,0(a6)
  for (int i = 0; i < charCount; ++i)
     906:	05170563          	beq	a4,a7,950 <whisperPrintfImpl+0x90a>
    whisperPutc(*p--);
     90a:	00074b03          	lbu	s6,0(a4)
     90e:	fff74c83          	lbu	s9,-1(a4)
     912:	ffe74e03          	lbu	t3,-2(a4)
  tohost = c;
     916:	01680023          	sb	s6,0(a6)
    whisperPutc(*p--);
     91a:	ffd74b03          	lbu	s6,-3(a4)
  tohost = c;
     91e:	01980023          	sb	s9,0(a6)
    whisperPutc(*p--);
     922:	ffc74c83          	lbu	s9,-4(a4)
  tohost = c;
     926:	01c80023          	sb	t3,0(a6)
    whisperPutc(*p--);
     92a:	ffb74e03          	lbu	t3,-5(a4)
  tohost = c;
     92e:	01680023          	sb	s6,0(a6)
    whisperPutc(*p--);
     932:	ffa74b03          	lbu	s6,-6(a4)
  tohost = c;
     936:	01980023          	sb	s9,0(a6)
    whisperPutc(*p--);
     93a:	ff974c83          	lbu	s9,-7(a4)
  tohost = c;
     93e:	01c80023          	sb	t3,0(a6)
     942:	01680023          	sb	s6,0(a6)
    whisperPutc(*p--);
     946:	1761                	addi	a4,a4,-8
  tohost = c;
     948:	01980023          	sb	s9,0(a6)
  for (int i = 0; i < charCount; ++i)
     94c:	fb171fe3          	bne	a4,a7,90a <whisperPrintfImpl+0x8c4>
  if (neg)
     950:	be0c53e3          	bgez	s8,536 <whisperPrintfImpl+0x4f0>
    charCount++;
     954:	002b879b          	addiw	a5,s7,2
          count += whisperPrintUnsigned((unsigned) va_arg(ap, unsigned), width, pad);
     958:	9d3d                	addw	a0,a0,a5
          break;
     95a:	bef9                	j	538 <whisperPrintfImpl+0x4f2>
          whisperPutc(va_arg(ap, int));
     95c:	0005c783          	lbu	a5,0(a1)
          ++count;
     960:	2505                	addiw	a0,a0,1
          whisperPutc(va_arg(ap, int));
     962:	05a1                	addi	a1,a1,8
  tohost = c;
     964:	00f80023          	sb	a5,0(a6)
  for (const char* fp = format; *fp; fp++)
     968:	f2069963          	bnez	a3,9a <whisperPrintfImpl+0x54>
     96c:	f46ff06f          	j	b2 <whisperPrintfImpl+0x6c>
      while (*fp == '0')
     970:	8746                	mv	a4,a7
     972:	8672                	mv	a2,t3
      char pad = ' ';
     974:	02000893          	li	a7,32
     978:	fd2ff06f          	j	14a <whisperPrintfImpl+0x104>
  int count = 0;  // Printed character count
     97c:	4501                	li	a0,0
}
     97e:	8082                	ret

0000000000000980 <whisperPrintf>:


int
whisperPrintf(const char* format, ...)
{
     980:	711d                	addi	sp,sp,-96
  va_list ap;

  va_start(ap, format);
     982:	02810313          	addi	t1,sp,40
{
     986:	f42e                	sd	a1,40(sp)
  int code = whisperPrintfImpl(format, ap);
     988:	859a                	mv	a1,t1
{
     98a:	ec06                	sd	ra,24(sp)
     98c:	f832                	sd	a2,48(sp)
     98e:	fc36                	sd	a3,56(sp)
     990:	e0ba                	sd	a4,64(sp)
     992:	e4be                	sd	a5,72(sp)
     994:	e8c2                	sd	a6,80(sp)
     996:	ecc6                	sd	a7,88(sp)
  va_start(ap, format);
     998:	e41a                	sd	t1,8(sp)
  int code = whisperPrintfImpl(format, ap);
     99a:	eacff0ef          	jal	ra,46 <whisperPrintfImpl>
  va_end(ap);

  return code;
}
     99e:	60e2                	ld	ra,24(sp)
     9a0:	6125                	addi	sp,sp,96
     9a2:	8082                	ret

00000000000009a4 <putchar>:

int
putchar(int c)
{
  return whisperPutc(c);
     9a4:	0ff57513          	andi	a0,a0,255
  tohost = c;
     9a8:	705807b7          	lui	a5,0x70580
     9ac:	00a78023          	sb	a0,0(a5) # 70580000 <tohost>
}
     9b0:	8082                	ret

00000000000009b2 <putc>:
struct FILE;

int
putc(int c, struct FILE* f)
{
  return whisperPutc(c);
     9b2:	0ff57513          	andi	a0,a0,255
  tohost = c;
     9b6:	705807b7          	lui	a5,0x70580
     9ba:	00a78023          	sb	a0,0(a5) # 70580000 <tohost>
}
     9be:	8082                	ret

00000000000009c0 <puts>:
  while (*s)
     9c0:	00054803          	lbu	a6,0(a0)
     9c4:	705807b7          	lui	a5,0x70580
     9c8:	04080f63          	beqz	a6,a26 <puts+0x66>
  tohost = c;
     9cc:	01078023          	sb	a6,0(a5) # 70580000 <tohost>
  while (*s)
     9d0:	00154703          	lbu	a4,1(a0)
     9d4:	cb29                	beqz	a4,a26 <puts+0x66>
  tohost = c;
     9d6:	00e78023          	sb	a4,0(a5)
  while (*s)
     9da:	00254283          	lbu	t0,2(a0)
     9de:	04028463          	beqz	t0,a26 <puts+0x66>
  tohost = c;
     9e2:	00578023          	sb	t0,0(a5)
  while (*s)
     9e6:	00354303          	lbu	t1,3(a0)
     9ea:	02030e63          	beqz	t1,a26 <puts+0x66>
  tohost = c;
     9ee:	00678023          	sb	t1,0(a5)
  while (*s)
     9f2:	00454383          	lbu	t2,4(a0)
     9f6:	02038863          	beqz	t2,a26 <puts+0x66>
  tohost = c;
     9fa:	00778023          	sb	t2,0(a5)
  while (*s)
     9fe:	00554583          	lbu	a1,5(a0)
     a02:	c195                	beqz	a1,a26 <puts+0x66>
  tohost = c;
     a04:	00b78023          	sb	a1,0(a5)
  while (*s)
     a08:	00654603          	lbu	a2,6(a0)
     a0c:	ce09                	beqz	a2,a26 <puts+0x66>
  tohost = c;
     a0e:	00c78023          	sb	a2,0(a5)
  while (*s)
     a12:	00754683          	lbu	a3,7(a0)
    whisperPutc(*s++);
     a16:	0521                	addi	a0,a0,8
  while (*s)
     a18:	c699                	beqz	a3,a26 <puts+0x66>
  tohost = c;
     a1a:	00d78023          	sb	a3,0(a5)
  while (*s)
     a1e:	00054803          	lbu	a6,0(a0)
     a22:	fa0815e3          	bnez	a6,9cc <puts+0xc>
  tohost = c;
     a26:	4529                	li	a0,10
     a28:	00a78023          	sb	a0,0(a5)

int
puts(const char* s)
{
  return whisperPuts(s);
}
     a2c:	4505                	li	a0,1
     a2e:	8082                	ret

0000000000000a30 <printf>:

int
printf(const char* format, ...)
{
     a30:	711d                	addi	sp,sp,-96
  va_list ap;

  va_start(ap, format);
     a32:	02810313          	addi	t1,sp,40
{
     a36:	f42e                	sd	a1,40(sp)
  int code = whisperPrintfImpl(format, ap);
     a38:	859a                	mv	a1,t1
{
     a3a:	ec06                	sd	ra,24(sp)
     a3c:	f832                	sd	a2,48(sp)
     a3e:	fc36                	sd	a3,56(sp)
     a40:	e0ba                	sd	a4,64(sp)
     a42:	e4be                	sd	a5,72(sp)
     a44:	e8c2                	sd	a6,80(sp)
     a46:	ecc6                	sd	a7,88(sp)
  va_start(ap, format);
     a48:	e41a                	sd	t1,8(sp)
  int code = whisperPrintfImpl(format, ap);
     a4a:	dfcff0ef          	jal	ra,46 <whisperPrintfImpl>
  va_end(ap);

  return code;
}
     a4e:	60e2                	ld	ra,24(sp)
     a50:	6125                	addi	sp,sp,96
     a52:	8082                	ret

0000000000000a54 <get_mcycle>:
unsigned int mcyclel;
unsigned int mcycleh0 = 0, mcycleh1=1;
uint64_t cycles;

while(mcycleh0 != mcycleh1) {
    asm volatile ("csrr %0,mcycleh"  : "=r" (mcycleh0) );
     a54:	b8002573          	csrr	a0,mcycleh
     a58:	2501                	sext.w	a0,a0
    asm volatile ("csrr %0,mcycle"   : "=r" (mcyclel)  );
     a5a:	b00027f3          	csrr	a5,mcycle
     a5e:	2781                	sext.w	a5,a5
    asm volatile ("csrr %0,mcycleh"  : "=r" (mcycleh1) );
     a60:	b8002773          	csrr	a4,mcycleh
     a64:	0007029b          	sext.w	t0,a4
while(mcycleh0 != mcycleh1) {
     a68:	0c550263          	beq	a0,t0,b2c <get_mcycle+0xd8>
    asm volatile ("csrr %0,mcycleh"  : "=r" (mcycleh0) );
     a6c:	b8002373          	csrr	t1,mcycleh
     a70:	0003051b          	sext.w	a0,t1
    asm volatile ("csrr %0,mcycle"   : "=r" (mcyclel)  );
     a74:	b00023f3          	csrr	t2,mcycle
     a78:	0003879b          	sext.w	a5,t2
    asm volatile ("csrr %0,mcycleh"  : "=r" (mcycleh1) );
     a7c:	b80025f3          	csrr	a1,mcycleh
     a80:	0005861b          	sext.w	a2,a1
while(mcycleh0 != mcycleh1) {
     a84:	0ac50463          	beq	a0,a2,b2c <get_mcycle+0xd8>
    asm volatile ("csrr %0,mcycleh"  : "=r" (mcycleh0) );
     a88:	b80026f3          	csrr	a3,mcycleh
     a8c:	0006851b          	sext.w	a0,a3
    asm volatile ("csrr %0,mcycle"   : "=r" (mcyclel)  );
     a90:	b0002873          	csrr	a6,mcycle
     a94:	0008079b          	sext.w	a5,a6
    asm volatile ("csrr %0,mcycleh"  : "=r" (mcycleh1) );
     a98:	b80028f3          	csrr	a7,mcycleh
     a9c:	00088e1b          	sext.w	t3,a7
while(mcycleh0 != mcycleh1) {
     aa0:	09c50663          	beq	a0,t3,b2c <get_mcycle+0xd8>
    asm volatile ("csrr %0,mcycleh"  : "=r" (mcycleh0) );
     aa4:	b8002ef3          	csrr	t4,mcycleh
     aa8:	000e851b          	sext.w	a0,t4
    asm volatile ("csrr %0,mcycle"   : "=r" (mcyclel)  );
     aac:	b0002f73          	csrr	t5,mcycle
     ab0:	000f079b          	sext.w	a5,t5
    asm volatile ("csrr %0,mcycleh"  : "=r" (mcycleh1) );
     ab4:	b8002ff3          	csrr	t6,mcycleh
     ab8:	000f871b          	sext.w	a4,t6
while(mcycleh0 != mcycleh1) {
     abc:	06e50863          	beq	a0,a4,b2c <get_mcycle+0xd8>
    asm volatile ("csrr %0,mcycleh"  : "=r" (mcycleh0) );
     ac0:	b8002573          	csrr	a0,mcycleh
     ac4:	2501                	sext.w	a0,a0
    asm volatile ("csrr %0,mcycle"   : "=r" (mcyclel)  );
     ac6:	b00027f3          	csrr	a5,mcycle
     aca:	2781                	sext.w	a5,a5
    asm volatile ("csrr %0,mcycleh"  : "=r" (mcycleh1) );
     acc:	b80022f3          	csrr	t0,mcycleh
     ad0:	0002831b          	sext.w	t1,t0
while(mcycleh0 != mcycleh1) {
     ad4:	04650c63          	beq	a0,t1,b2c <get_mcycle+0xd8>
    asm volatile ("csrr %0,mcycleh"  : "=r" (mcycleh0) );
     ad8:	b80023f3          	csrr	t2,mcycleh
     adc:	0003851b          	sext.w	a0,t2
    asm volatile ("csrr %0,mcycle"   : "=r" (mcyclel)  );
     ae0:	b00025f3          	csrr	a1,mcycle
     ae4:	0005879b          	sext.w	a5,a1
    asm volatile ("csrr %0,mcycleh"  : "=r" (mcycleh1) );
     ae8:	b8002673          	csrr	a2,mcycleh
     aec:	0006069b          	sext.w	a3,a2
while(mcycleh0 != mcycleh1) {
     af0:	02d50e63          	beq	a0,a3,b2c <get_mcycle+0xd8>
    asm volatile ("csrr %0,mcycleh"  : "=r" (mcycleh0) );
     af4:	b8002873          	csrr	a6,mcycleh
     af8:	0008051b          	sext.w	a0,a6
    asm volatile ("csrr %0,mcycle"   : "=r" (mcyclel)  );
     afc:	b00028f3          	csrr	a7,mcycle
     b00:	0008879b          	sext.w	a5,a7
    asm volatile ("csrr %0,mcycleh"  : "=r" (mcycleh1) );
     b04:	b8002e73          	csrr	t3,mcycleh
     b08:	000e0e9b          	sext.w	t4,t3
while(mcycleh0 != mcycleh1) {
     b0c:	03d50063          	beq	a0,t4,b2c <get_mcycle+0xd8>
    asm volatile ("csrr %0,mcycleh"  : "=r" (mcycleh0) );
     b10:	b8002f73          	csrr	t5,mcycleh
     b14:	000f051b          	sext.w	a0,t5
    asm volatile ("csrr %0,mcycle"   : "=r" (mcyclel)  );
     b18:	b0002ff3          	csrr	t6,mcycle
     b1c:	000f879b          	sext.w	a5,t6
    asm volatile ("csrr %0,mcycleh"  : "=r" (mcycleh1) );
     b20:	b8002773          	csrr	a4,mcycleh
     b24:	0007029b          	sext.w	t0,a4
while(mcycleh0 != mcycleh1) {
     b28:	f25516e3          	bne	a0,t0,a54 <get_mcycle>
}
cycles = mcycleh1;
return (cycles << 32) | mcyclel;
     b2c:	02079393          	slli	t2,a5,0x20
     b30:	02051313          	slli	t1,a0,0x20
     b34:	0203d593          	srli	a1,t2,0x20

}
     b38:	00b36533          	or	a0,t1,a1
     b3c:	8082                	ret

0000000000000b3e <cmp_idx>:
       Compare the idx item in a list cell, and regen the data.

       Can be used by mergesort.
   */
ee_s32 cmp_idx(list_data *a, list_data *b, core_results *res) {
        if (res==NULL) {
     b3e:	c619                	beqz	a2,b4c <cmp_idx+0xe>
                a->data16 = (a->data16 & 0xff00) | (0x00ff & (a->data16>>8));
                b->data16 = (b->data16 & 0xff00) | (0x00ff & (b->data16>>8));
            }
        return a->idx - b->idx;
     b40:	00251503          	lh	a0,2(a0)
     b44:	00259583          	lh	a1,2(a1)
}
     b48:	9d0d                	subw	a0,a0,a1
     b4a:	8082                	ret
                a->data16 = (a->data16 & 0xff00) | (0x00ff & (a->data16>>8));
     b4c:	00051783          	lh	a5,0(a0)
     b50:	0107971b          	slliw	a4,a5,0x10
     b54:	0107529b          	srliw	t0,a4,0x10
     b58:	f007f313          	andi	t1,a5,-256
     b5c:	0082d39b          	srliw	t2,t0,0x8
     b60:	00736633          	or	a2,t1,t2
     b64:	00c51023          	sh	a2,0(a0)
                b->data16 = (b->data16 & 0xff00) | (0x00ff & (b->data16>>8));
     b68:	00059683          	lh	a3,0(a1)
        return a->idx - b->idx;
     b6c:	00251503          	lh	a0,2(a0)
                b->data16 = (b->data16 & 0xff00) | (0x00ff & (b->data16>>8));
     b70:	0106981b          	slliw	a6,a3,0x10
     b74:	0108589b          	srliw	a7,a6,0x10
     b78:	f006fe13          	andi	t3,a3,-256
     b7c:	0088de9b          	srliw	t4,a7,0x8
     b80:	01de6f33          	or	t5,t3,t4
     b84:	01e59023          	sh	t5,0(a1)
        return a->idx - b->idx;
     b88:	00259583          	lh	a1,2(a1)
}
     b8c:	9d0d                	subw	a0,a0,a1
     b8e:	8082                	ret

0000000000000b90 <copy_info>:

void copy_info(list_data *to,list_data *from) {
        to->data16=from->data16;
     b90:	00059703          	lh	a4,0(a1)
        to->idx=from->idx;
     b94:	00259783          	lh	a5,2(a1)
        to->data16=from->data16;
     b98:	00e51023          	sh	a4,0(a0)
        to->idx=from->idx;
     b9c:	00f51123          	sh	a5,2(a0)
}
     ba0:	8082                	ret

0000000000000ba2 <core_list_init>:

*/
list_head *core_list_init(ee_u32 blksize, list_head *memblock, ee_s16 seed) {
        /* calculated pointers for the list */
            ee_u32 per_item=16+sizeof(struct list_data_s);
        ee_u32 size=(blksize/per_item)-2; /* to accomodate systems with 64b pointers, and make sure same code is executed, set max list elements */
     ba2:	4851                	li	a6,20
     ba4:	030552b3          	divu	t0,a0,a6
list_head *core_list_init(ee_u32 blksize, list_head *memblock, ee_s16 seed) {
     ba8:	8e32                	mv	t3,a2

        /* create a fake items for the list head and tail */
            list->next=NULL;
        list->info=datablock;
        list->info->idx=0x0000;
        list->info->data16=(ee_s16)0x8080;
     baa:	7561                	lui	a0,0xffff8
            list->next=NULL;
     bac:	0005b023          	sd	zero,0(a1)
        list->info->data16=(ee_s16)0x8080;
     bb0:	08050713          	addi	a4,a0,128 # ffffffffffff8080 <tohost+0xffffffff8fa78080>
   */
list_head *core_list_insert_new(list_head *insert_point, list_data *info, list_head **memblock, list_data **datablock
            , list_head *memblock_end, list_data *datablock_end) {
        list_head *newitem;

        if ((*memblock+1) >= memblock_end)
     bb4:	02058793          	addi	a5,a1,32
        memblock++;
     bb8:	01058693          	addi	a3,a1,16
        ee_u32 size=(blksize/per_item)-2; /* to accomodate systems with 64b pointers, and make sure same code is executed, set max list elements */
     bbc:	ffe28813          	addi	a6,t0,-2
        list_head *memblock_end=memblock+size;
     bc0:	00481613          	slli	a2,a6,0x4
     bc4:	962e                	add	a2,a2,a1
        list->info=datablock;
     bc6:	e590                	sd	a2,8(a1)
        list_data *datablock_end=datablock+size;
     bc8:	00281893          	slli	a7,a6,0x2
        list->info->idx=0x0000;
     bcc:	00061123          	sh	zero,2(a2)
        list->info->data16=(ee_s16)0x8080;
     bd0:	00e61023          	sh	a4,0(a2)
        list_data *datablock_end=datablock+size;
     bd4:	98b2                	add	a7,a7,a2
        datablock++;
     bd6:	00460313          	addi	t1,a2,4
        if ((*memblock+1) >= memblock_end)
     bda:	3cc7f763          	bgeu	a5,a2,fa8 <core_list_init+0x406>
                return NULL;
        if ((*datablock+1) >= datablock_end)
     bde:	00860713          	addi	a4,a2,8
     be2:	3d177363          	bgeu	a4,a7,fa8 <core_list_init+0x406>
                return NULL;

        newitem=*memblock;
        (*memblock)++;
        newitem->next=insert_point->next;
     be6:	0005b823          	sd	zero,16(a1)
        insert_point->next=newitem;
     bea:	e194                	sd	a3,0(a1)

        newitem->info=*datablock;
     bec:	0065bc23          	sd	t1,24(a1)
        to->idx=from->idx;
     bf0:	fff54393          	not	t2,a0
        to->data16=from->data16;
     bf4:	5efd                	li	t4,-1
     bf6:	01d61223          	sh	t4,4(a2)
        to->idx=from->idx;
     bfa:	00761323          	sh	t2,6(a2)
            for (i=0; i<size; i++) {
     bfe:	22080363          	beqz	a6,e24 <core_list_init+0x282>
                        ee_u16 pat=(ee_u16)(i++ ^ seed); /* get a pseudo random number */
     c02:	030e1f13          	slli	t5,t3,0x30
        to->idx=from->idx;
     c06:	7fe1                	lui	t6,0xffff8
     c08:	00387293          	andi	t0,a6,3
                        ee_u16 pat=(ee_u16)(i++ ^ seed); /* get a pseudo random number */
     c0c:	030f5f13          	srli	t5,t5,0x30
     c10:	4501                	li	a0,0
        to->idx=from->idx;
     c12:	ffffce93          	not	t4,t6
     c16:	0c028f63          	beqz	t0,cf4 <core_list_init+0x152>
     c1a:	4305                	li	t1,1
     c1c:	08628563          	beq	t0,t1,ca6 <core_list_init+0x104>
     c20:	4389                	li	t2,2
     c22:	02728d63          	beq	t0,t2,c5c <core_list_init+0xba>
        if ((*memblock+1) >= memblock_end)
     c26:	01078293          	addi	t0,a5,16
     c2a:	1ec2fd63          	bgeu	t0,a2,e24 <core_list_init+0x282>
        if ((*datablock+1) >= datablock_end)
     c2e:	00470f93          	addi	t6,a4,4
     c32:	031ff463          	bgeu	t6,a7,c5a <core_list_init+0xb8>
                    ee_u16 dat=(datpat<<3) | (i&0x7); /* alternate between algorithms */
     c36:	003f151b          	slliw	a0,t5,0x3
        newitem->next=insert_point->next;
     c3a:	e394                	sd	a3,0(a5)
                    ee_u16 dat=(datpat<<3) | (i&0x7); /* alternate between algorithms */
     c3c:	07857693          	andi	a3,a0,120
        insert_point->next=newitem;
     c40:	e19c                	sd	a5,0(a1)
                    info.data16=(dat<<8) | dat;       /* fill the data with actual data and upper bits with rebuild value */
     c42:	0086931b          	slliw	t1,a3,0x8
        newitem->info=*datablock;
     c46:	e798                	sd	a4,8(a5)
                    info.data16=(dat<<8) | dat;       /* fill the data with actual data and upper bits with rebuild value */
     c48:	0066e3b3          	or	t2,a3,t1
        to->data16=from->data16;
     c4c:	00771023          	sh	t2,0(a4)
        to->idx=from->idx;
     c50:	01d71123          	sh	t4,2(a4)
        (*datablock)++;
        copy_info(newitem->info,info);

        return newitem;
     c54:	86be                	mv	a3,a5
     c56:	877e                	mv	a4,t6
     c58:	8796                	mv	a5,t0
            for (i=0; i<size; i++) {
     c5a:	4505                	li	a0,1
        if ((*memblock+1) >= memblock_end)
     c5c:	01078293          	addi	t0,a5,16
     c60:	1cc2f263          	bgeu	t0,a2,e24 <core_list_init+0x282>
        if ((*datablock+1) >= datablock_end)
     c64:	00470393          	addi	t2,a4,4
     c68:	0313fe63          	bgeu	t2,a7,ca4 <core_list_init+0x102>
     c6c:	03051f93          	slli	t6,a0,0x30
     c70:	030fdf93          	srli	t6,t6,0x30
                    ee_u16 datpat=((ee_u16)(seed^i) & 0xf);
     c74:	01efc333          	xor	t1,t6,t5
                    ee_u16 dat=(datpat<<3) | (i&0x7); /* alternate between algorithms */
     c78:	0033131b          	slliw	t1,t1,0x3
     c7c:	07837313          	andi	t1,t1,120
     c80:	007fff93          	andi	t6,t6,7
        newitem->next=insert_point->next;
     c84:	e394                	sd	a3,0(a5)
                    ee_u16 dat=(datpat<<3) | (i&0x7); /* alternate between algorithms */
     c86:	01f366b3          	or	a3,t1,t6
        insert_point->next=newitem;
     c8a:	e19c                	sd	a5,0(a1)
                    info.data16=(dat<<8) | dat;       /* fill the data with actual data and upper bits with rebuild value */
     c8c:	0086931b          	slliw	t1,a3,0x8
        newitem->info=*datablock;
     c90:	e798                	sd	a4,8(a5)
                    info.data16=(dat<<8) | dat;       /* fill the data with actual data and upper bits with rebuild value */
     c92:	0066efb3          	or	t6,a3,t1
        to->data16=from->data16;
     c96:	01f71023          	sh	t6,0(a4)
        to->idx=from->idx;
     c9a:	01d71123          	sh	t4,2(a4)
        return newitem;
     c9e:	86be                	mv	a3,a5
     ca0:	871e                	mv	a4,t2
     ca2:	8796                	mv	a5,t0
            for (i=0; i<size; i++) {
     ca4:	0505                	addi	a0,a0,1
        if ((*memblock+1) >= memblock_end)
     ca6:	01078293          	addi	t0,a5,16
     caa:	16c2fd63          	bgeu	t0,a2,e24 <core_list_init+0x282>
        if ((*datablock+1) >= datablock_end)
     cae:	00470393          	addi	t2,a4,4
     cb2:	0313fe63          	bgeu	t2,a7,cee <core_list_init+0x14c>
     cb6:	03051313          	slli	t1,a0,0x30
     cba:	03035f93          	srli	t6,t1,0x30
                    ee_u16 datpat=((ee_u16)(seed^i) & 0xf);
     cbe:	01efc333          	xor	t1,t6,t5
                    ee_u16 dat=(datpat<<3) | (i&0x7); /* alternate between algorithms */
     cc2:	0033131b          	slliw	t1,t1,0x3
     cc6:	07837313          	andi	t1,t1,120
     cca:	007fff93          	andi	t6,t6,7
        newitem->next=insert_point->next;
     cce:	e394                	sd	a3,0(a5)
                    ee_u16 dat=(datpat<<3) | (i&0x7); /* alternate between algorithms */
     cd0:	01f366b3          	or	a3,t1,t6
        insert_point->next=newitem;
     cd4:	e19c                	sd	a5,0(a1)
                    info.data16=(dat<<8) | dat;       /* fill the data with actual data and upper bits with rebuild value */
     cd6:	0086931b          	slliw	t1,a3,0x8
        newitem->info=*datablock;
     cda:	e798                	sd	a4,8(a5)
                    info.data16=(dat<<8) | dat;       /* fill the data with actual data and upper bits with rebuild value */
     cdc:	0066efb3          	or	t6,a3,t1
        to->data16=from->data16;
     ce0:	01f71023          	sh	t6,0(a4)
        to->idx=from->idx;
     ce4:	01d71123          	sh	t4,2(a4)
        return newitem;
     ce8:	86be                	mv	a3,a5
     cea:	871e                	mv	a4,t2
     cec:	8796                	mv	a5,t0
            for (i=0; i<size; i++) {
     cee:	0505                	addi	a0,a0,1
     cf0:	12a80a63          	beq	a6,a0,e24 <core_list_init+0x282>
        if ((*memblock+1) >= memblock_end)
     cf4:	01078293          	addi	t0,a5,16
     cf8:	12c2f663          	bgeu	t0,a2,e24 <core_list_init+0x282>
        if ((*datablock+1) >= datablock_end)
     cfc:	00470393          	addi	t2,a4,4
     d00:	0313fe63          	bgeu	t2,a7,d3c <core_list_init+0x19a>
     d04:	03051313          	slli	t1,a0,0x30
     d08:	03035f93          	srli	t6,t1,0x30
                    ee_u16 datpat=((ee_u16)(seed^i) & 0xf);
     d0c:	01efc333          	xor	t1,t6,t5
                    ee_u16 dat=(datpat<<3) | (i&0x7); /* alternate between algorithms */
     d10:	0033131b          	slliw	t1,t1,0x3
     d14:	07837313          	andi	t1,t1,120
     d18:	007fff93          	andi	t6,t6,7
        newitem->next=insert_point->next;
     d1c:	e394                	sd	a3,0(a5)
                    ee_u16 dat=(datpat<<3) | (i&0x7); /* alternate between algorithms */
     d1e:	01f366b3          	or	a3,t1,t6
        insert_point->next=newitem;
     d22:	e19c                	sd	a5,0(a1)
                    info.data16=(dat<<8) | dat;       /* fill the data with actual data and upper bits with rebuild value */
     d24:	0086931b          	slliw	t1,a3,0x8
        newitem->info=*datablock;
     d28:	e798                	sd	a4,8(a5)
                    info.data16=(dat<<8) | dat;       /* fill the data with actual data and upper bits with rebuild value */
     d2a:	0066efb3          	or	t6,a3,t1
        to->data16=from->data16;
     d2e:	01f71023          	sh	t6,0(a4)
        to->idx=from->idx;
     d32:	01d71123          	sh	t4,2(a4)
        return newitem;
     d36:	86be                	mv	a3,a5
     d38:	871e                	mv	a4,t2
     d3a:	8796                	mv	a5,t0
        if ((*memblock+1) >= memblock_end)
     d3c:	01078293          	addi	t0,a5,16
            for (i=0; i<size; i++) {
     d40:	0505                	addi	a0,a0,1
        if ((*memblock+1) >= memblock_end)
     d42:	0ec2f163          	bgeu	t0,a2,e24 <core_list_init+0x282>
        if ((*datablock+1) >= datablock_end)
     d46:	00470393          	addi	t2,a4,4
     d4a:	0313fe63          	bgeu	t2,a7,d86 <core_list_init+0x1e4>
     d4e:	03051313          	slli	t1,a0,0x30
     d52:	03035f93          	srli	t6,t1,0x30
                    ee_u16 datpat=((ee_u16)(seed^i) & 0xf);
     d56:	01efc333          	xor	t1,t6,t5
                    ee_u16 dat=(datpat<<3) | (i&0x7); /* alternate between algorithms */
     d5a:	0033131b          	slliw	t1,t1,0x3
     d5e:	07837313          	andi	t1,t1,120
     d62:	007fff93          	andi	t6,t6,7
        newitem->next=insert_point->next;
     d66:	e394                	sd	a3,0(a5)
                    ee_u16 dat=(datpat<<3) | (i&0x7); /* alternate between algorithms */
     d68:	01f366b3          	or	a3,t1,t6
        insert_point->next=newitem;
     d6c:	e19c                	sd	a5,0(a1)
                    info.data16=(dat<<8) | dat;       /* fill the data with actual data and upper bits with rebuild value */
     d6e:	0086931b          	slliw	t1,a3,0x8
        newitem->info=*datablock;
     d72:	e798                	sd	a4,8(a5)
                    info.data16=(dat<<8) | dat;       /* fill the data with actual data and upper bits with rebuild value */
     d74:	0066efb3          	or	t6,a3,t1
        to->data16=from->data16;
     d78:	01f71023          	sh	t6,0(a4)
        to->idx=from->idx;
     d7c:	01d71123          	sh	t4,2(a4)
        return newitem;
     d80:	86be                	mv	a3,a5
     d82:	871e                	mv	a4,t2
     d84:	8796                	mv	a5,t0
        if ((*memblock+1) >= memblock_end)
     d86:	01078293          	addi	t0,a5,16
            for (i=0; i<size; i++) {
     d8a:	00150313          	addi	t1,a0,1
        if ((*memblock+1) >= memblock_end)
     d8e:	08c2fb63          	bgeu	t0,a2,e24 <core_list_init+0x282>
        if ((*datablock+1) >= datablock_end)
     d92:	00470393          	addi	t2,a4,4
     d96:	0313fe63          	bgeu	t2,a7,dd2 <core_list_init+0x230>
     d9a:	03031f93          	slli	t6,t1,0x30
     d9e:	030fdf93          	srli	t6,t6,0x30
                    ee_u16 datpat=((ee_u16)(seed^i) & 0xf);
     da2:	01efc333          	xor	t1,t6,t5
                    ee_u16 dat=(datpat<<3) | (i&0x7); /* alternate between algorithms */
     da6:	0033131b          	slliw	t1,t1,0x3
     daa:	07837313          	andi	t1,t1,120
     dae:	007fff93          	andi	t6,t6,7
        newitem->next=insert_point->next;
     db2:	e394                	sd	a3,0(a5)
                    ee_u16 dat=(datpat<<3) | (i&0x7); /* alternate between algorithms */
     db4:	01f366b3          	or	a3,t1,t6
        insert_point->next=newitem;
     db8:	e19c                	sd	a5,0(a1)
                    info.data16=(dat<<8) | dat;       /* fill the data with actual data and upper bits with rebuild value */
     dba:	0086931b          	slliw	t1,a3,0x8
        newitem->info=*datablock;
     dbe:	e798                	sd	a4,8(a5)
                    info.data16=(dat<<8) | dat;       /* fill the data with actual data and upper bits with rebuild value */
     dc0:	0066efb3          	or	t6,a3,t1
        to->data16=from->data16;
     dc4:	01f71023          	sh	t6,0(a4)
        to->idx=from->idx;
     dc8:	01d71123          	sh	t4,2(a4)
        return newitem;
     dcc:	86be                	mv	a3,a5
     dce:	871e                	mv	a4,t2
     dd0:	8796                	mv	a5,t0
        if ((*memblock+1) >= memblock_end)
     dd2:	01078293          	addi	t0,a5,16
            for (i=0; i<size; i++) {
     dd6:	00250313          	addi	t1,a0,2
        if ((*memblock+1) >= memblock_end)
     dda:	04c2f563          	bgeu	t0,a2,e24 <core_list_init+0x282>
        if ((*datablock+1) >= datablock_end)
     dde:	00470393          	addi	t2,a4,4
     de2:	0313fe63          	bgeu	t2,a7,e1e <core_list_init+0x27c>
     de6:	03031f93          	slli	t6,t1,0x30
     dea:	030fdf93          	srli	t6,t6,0x30
                    ee_u16 datpat=((ee_u16)(seed^i) & 0xf);
     dee:	01efc333          	xor	t1,t6,t5
                    ee_u16 dat=(datpat<<3) | (i&0x7); /* alternate between algorithms */
     df2:	0033131b          	slliw	t1,t1,0x3
     df6:	07837313          	andi	t1,t1,120
     dfa:	007fff93          	andi	t6,t6,7
        newitem->next=insert_point->next;
     dfe:	e394                	sd	a3,0(a5)
                    ee_u16 dat=(datpat<<3) | (i&0x7); /* alternate between algorithms */
     e00:	01f366b3          	or	a3,t1,t6
        insert_point->next=newitem;
     e04:	e19c                	sd	a5,0(a1)
                    info.data16=(dat<<8) | dat;       /* fill the data with actual data and upper bits with rebuild value */
     e06:	0086931b          	slliw	t1,a3,0x8
        newitem->info=*datablock;
     e0a:	e798                	sd	a4,8(a5)
                    info.data16=(dat<<8) | dat;       /* fill the data with actual data and upper bits with rebuild value */
     e0c:	0066efb3          	or	t6,a3,t1
        to->data16=from->data16;
     e10:	01f71023          	sh	t6,0(a4)
        to->idx=from->idx;
     e14:	01d71123          	sh	t4,2(a4)
        return newitem;
     e18:	86be                	mv	a3,a5
     e1a:	871e                	mv	a4,t2
     e1c:	8796                	mv	a5,t0
            for (i=0; i<size; i++) {
     e1e:	050d                	addi	a0,a0,3
     e20:	eca81ae3          	bne	a6,a0,cf4 <core_list_init+0x152>
        while (finder->next!=NULL) {
     e24:	6290                	ld	a2,0(a3)
     e26:	ce39                	beqz	a2,e84 <core_list_init+0x2e2>
                if (i<size/5) /* first 20% of the list in order */
     e28:	4895                	li	a7,5
     e2a:	03185f33          	divu	t5,a6,a7
                        finder->info->idx=0x3fff & (((i & 0x07) << 8) | pat); /* make sure the mixed items end up after the ones in sequence */
     e2e:	6811                	lui	a6,0x4
                if (i<size/5) /* first 20% of the list in order */
     e30:	20000793          	li	a5,512
     e34:	4705                	li	a4,1
                        finder->info->idx=0x3fff & (((i & 0x07) << 8) | pat); /* make sure the mixed items end up after the ones in sequence */
     e36:	fff80e93          	addi	t4,a6,-1 # 3fff <matrix_mul_matrix+0x73>
     e3a:	a831                	j	e56 <core_list_init+0x2b4>
        while (finder->next!=NULL) {
     e3c:	6208                	ld	a0,0(a2)
     e3e:	1007881b          	addiw	a6,a5,256
                        finder->info->idx=i++;
     e42:	00e29123          	sh	a4,2(t0)
        while (finder->next!=NULL) {
     e46:	03081293          	slli	t0,a6,0x30
     e4a:	0705                	addi	a4,a4,1
     e4c:	0302d793          	srli	a5,t0,0x30
     e50:	c915                	beqz	a0,e84 <core_list_init+0x2e2>
                if (i<size/5) /* first 20% of the list in order */
     e52:	86b2                	mv	a3,a2
     e54:	862a                	mv	a2,a0
                        finder->info->idx=i++;
     e56:	0086b283          	ld	t0,8(a3)
                if (i<size/5) /* first 20% of the list in order */
     e5a:	ffe761e3          	bltu	a4,t5,e3c <core_list_init+0x29a>
                        finder->info->idx=0x3fff & (((i & 0x07) << 8) | pat); /* make sure the mixed items end up after the ones in sequence */
     e5e:	7007f393          	andi	t2,a5,1792
                        ee_u16 pat=(ee_u16)(i++ ^ seed); /* get a pseudo random number */
     e62:	01c74333          	xor	t1,a4,t3
        while (finder->next!=NULL) {
     e66:	6208                	ld	a0,0(a2)
                        finder->info->idx=0x3fff & (((i & 0x07) << 8) | pat); /* make sure the mixed items end up after the ones in sequence */
     e68:	0063efb3          	or	t6,t2,t1
        while (finder->next!=NULL) {
     e6c:	1007879b          	addiw	a5,a5,256
                        finder->info->idx=0x3fff & (((i & 0x07) << 8) | pat); /* make sure the mixed items end up after the ones in sequence */
     e70:	01dff6b3          	and	a3,t6,t4
        while (finder->next!=NULL) {
     e74:	03079893          	slli	a7,a5,0x30
                        finder->info->idx=0x3fff & (((i & 0x07) << 8) | pat); /* make sure the mixed items end up after the ones in sequence */
     e78:	00d29123          	sh	a3,2(t0)
        while (finder->next!=NULL) {
     e7c:	0705                	addi	a4,a4,1
     e7e:	0308d793          	srli	a5,a7,0x30
     e82:	f961                	bnez	a0,e52 <core_list_init+0x2b0>
   */
list_head *core_list_mergesort(list_head *list, list_cmp cmp, core_results *res) {
      list_head *p, *q, *e, *tail;
      ee_s32 insize, nmerges, psize, qsize, i;

      insize = 1;
     e84:	4f85                	li	t6,1

      while (1) {
            p = list;
            list = NULL;
            tail = NULL;
     e86:	4801                	li	a6,0
            list = NULL;
     e88:	4501                	li	a0,0

            nmerges = 0; /* count number of merges we do in this pass */
     e8a:	4281                	li	t0,0
                    }

              tail->next = NULL;

            /* If we have done only one merge, we're finished. */
                if (nmerges <= 1)  /* allow for nmerges==0, the empty list case */
     e8c:	4385                	li	t2,1
                      nmerges++; /* there exists a merge to be done */
     e8e:	007ffe13          	andi	t3,t6,7
     e92:	2285                	addiw	t0,t0,1
     e94:	87ae                	mv	a5,a1
                      psize = 0;
     e96:	4601                	li	a2,0
     e98:	040e0b63          	beqz	t3,eee <core_list_init+0x34c>
     e9c:	4f05                	li	t5,1
     e9e:	05ee0363          	beq	t3,t5,ee4 <core_list_init+0x342>
     ea2:	4e89                	li	t4,2
     ea4:	03de0d63          	beq	t3,t4,ede <core_list_init+0x33c>
     ea8:	430d                	li	t1,3
     eaa:	026e0763          	beq	t3,t1,ed8 <core_list_init+0x336>
     eae:	4691                	li	a3,4
     eb0:	02de0163          	beq	t3,a3,ed2 <core_list_init+0x330>
     eb4:	4715                	li	a4,5
     eb6:	00ee0b63          	beq	t3,a4,ecc <core_list_init+0x32a>
     eba:	4899                	li	a7,6
     ebc:	011e0563          	beq	t3,a7,ec6 <core_list_init+0x324>
                                  q = q->next;
     ec0:	619c                	ld	a5,0(a1)
                            psize++;
     ec2:	4605                	li	a2,1
                            if (!q) break;
     ec4:	cb9d                	beqz	a5,efa <core_list_init+0x358>
                                  q = q->next;
     ec6:	639c                	ld	a5,0(a5)
                            psize++;
     ec8:	2605                	addiw	a2,a2,1
                            if (!q) break;
     eca:	cb85                	beqz	a5,efa <core_list_init+0x358>
                                  q = q->next;
     ecc:	639c                	ld	a5,0(a5)
                            psize++;
     ece:	2605                	addiw	a2,a2,1
                            if (!q) break;
     ed0:	c78d                	beqz	a5,efa <core_list_init+0x358>
                                  q = q->next;
     ed2:	639c                	ld	a5,0(a5)
                            psize++;
     ed4:	2605                	addiw	a2,a2,1
                            if (!q) break;
     ed6:	c395                	beqz	a5,efa <core_list_init+0x358>
                                  q = q->next;
     ed8:	639c                	ld	a5,0(a5)
                            psize++;
     eda:	2605                	addiw	a2,a2,1
                            if (!q) break;
     edc:	cf99                	beqz	a5,efa <core_list_init+0x358>
                                  q = q->next;
     ede:	639c                	ld	a5,0(a5)
                            psize++;
     ee0:	2605                	addiw	a2,a2,1
                            if (!q) break;
     ee2:	cf81                	beqz	a5,efa <core_list_init+0x358>
                                  q = q->next;
     ee4:	639c                	ld	a5,0(a5)
                            psize++;
     ee6:	2605                	addiw	a2,a2,1
                            if (!q) break;
     ee8:	cb89                	beqz	a5,efa <core_list_init+0x358>
                      for (i = 0; i < insize; i++) {
     eea:	01f60863          	beq	a2,t6,efa <core_list_init+0x358>
                                  q = q->next;
     eee:	639c                	ld	a5,0(a5)
                            psize++;
     ef0:	2605                	addiw	a2,a2,1
                            if (!q) break;
     ef2:	c781                	beqz	a5,efa <core_list_init+0x358>
                                  q = q->next;
     ef4:	639c                	ld	a5,0(a5)
                            psize++;
     ef6:	2605                	addiw	a2,a2,1
                            if (!q) break;
     ef8:	f7f9                	bnez	a5,ec6 <core_list_init+0x324>
                                                      list = e;
     efa:	86fe                	mv	a3,t6
                          while (psize > 0 || (qsize > 0 && q)) {
     efc:	c625                	beqz	a2,f64 <core_list_init+0x3c2>
                                                } else if (qsize == 0 || !q) {
     efe:	cead                	beqz	a3,f78 <core_list_init+0x3d6>
     f00:	cfa5                	beqz	a5,f78 <core_list_init+0x3d6>
                                                    } else if (cmp(p->info,q->info,res) <= 0) {
     f02:	0085be03          	ld	t3,8(a1)
     f06:	0087b303          	ld	t1,8(a5)
                a->data16 = (a->data16 & 0xff00) | (0x00ff & (a->data16>>8));
     f0a:	000e1703          	lh	a4,0(t3)
        return a->idx - b->idx;
     f0e:	00231f03          	lh	t5,2(t1)
     f12:	002e1883          	lh	a7,2(t3)
                a->data16 = (a->data16 & 0xff00) | (0x00ff & (a->data16>>8));
     f16:	01071e9b          	slliw	t4,a4,0x10
     f1a:	010ede9b          	srliw	t4,t4,0x10
     f1e:	008ede9b          	srliw	t4,t4,0x8
     f22:	f0077713          	andi	a4,a4,-256
     f26:	01d76733          	or	a4,a4,t4
     f2a:	00ee1023          	sh	a4,0(t3)
                b->data16 = (b->data16 & 0xff00) | (0x00ff & (b->data16>>8));
     f2e:	00031e83          	lh	t4,0(t1)
                                                    } else if (cmp(p->info,q->info,res) <= 0) {
     f32:	41e888bb          	subw	a7,a7,t5
                b->data16 = (b->data16 & 0xff00) | (0x00ff & (b->data16>>8));
     f36:	010e9e1b          	slliw	t3,t4,0x10
     f3a:	010e5f1b          	srliw	t5,t3,0x10
     f3e:	f00ef713          	andi	a4,t4,-256
     f42:	008f5e9b          	srliw	t4,t5,0x8
     f46:	01d76e33          	or	t3,a4,t4
     f4a:	01c31023          	sh	t3,0(t1)
                                                    } else if (cmp(p->info,q->info,res) <= 0) {
     f4e:	03105563          	blez	a7,f78 <core_list_init+0x3d6>
                                                                  e = q; q = q->next; qsize--;
     f52:	833e                	mv	t1,a5
     f54:	639c                	ld	a5,0(a5)
     f56:	36fd                	addiw	a3,a3,-1
                                            if (tail) {
     f58:	00080d63          	beqz	a6,f72 <core_list_init+0x3d0>
                                                  tail->next = e;
     f5c:	00683023          	sd	t1,0(a6)
                                                      list = e;
     f60:	881a                	mv	a6,t1
                          while (psize > 0 || (qsize > 0 && q)) {
     f62:	fe51                	bnez	a2,efe <core_list_init+0x35c>
     f64:	ce91                	beqz	a3,f80 <core_list_init+0x3de>
     f66:	c385                	beqz	a5,f86 <core_list_init+0x3e4>
                                                      e = q; q = q->next; qsize--;
     f68:	833e                	mv	t1,a5
     f6a:	36fd                	addiw	a3,a3,-1
     f6c:	639c                	ld	a5,0(a5)
                                            if (tail) {
     f6e:	fe0817e3          	bnez	a6,f5c <core_list_init+0x3ba>
                                                      list = e;
     f72:	851a                	mv	a0,t1
     f74:	881a                	mv	a6,t1
     f76:	b7f5                	j	f62 <core_list_init+0x3c0>
                                                              e = p; p = p->next; psize--;
     f78:	832e                	mv	t1,a1
     f7a:	367d                	addiw	a2,a2,-1
     f7c:	618c                	ld	a1,0(a1)
     f7e:	bfe9                	j	f58 <core_list_init+0x3b6>
                while (p) {
     f80:	c399                	beqz	a5,f86 <core_list_init+0x3e4>
            list = NULL;
     f82:	85be                	mv	a1,a5
     f84:	b729                	j	e8e <core_list_init+0x2ec>
              tail->next = NULL;
     f86:	00083023          	sd	zero,0(a6)
                if (nmerges <= 1)  /* allow for nmerges==0, the empty list case */
     f8a:	00728b63          	beq	t0,t2,fa0 <core_list_init+0x3fe>
                  return list;

            /* Otherwise repeat, merging lists twice the size */
                insize *= 2;
     f8e:	001f9f9b          	slliw	t6,t6,0x1
                while (p) {
     f92:	c901                	beqz	a0,fa2 <core_list_init+0x400>
     f94:	87aa                	mv	a5,a0
            nmerges = 0; /* count number of merges we do in this pass */
     f96:	4281                	li	t0,0
            tail = NULL;
     f98:	4801                	li	a6,0
            list = NULL;
     f9a:	4501                	li	a0,0
     f9c:	85be                	mv	a1,a5
     f9e:	bdc5                	j	e8e <core_list_init+0x2ec>
}
     fa0:	8082                	ret
              tail->next = NULL;
     fa2:	00003023          	sd	zero,0(zero) # 0 <_start>
     fa6:	9002                	ebreak
        memblock++;
     fa8:	87b6                	mv	a5,a3
        datablock++;
     faa:	871a                	mv	a4,t1
     fac:	4681                	li	a3,0
     fae:	b981                	j	bfe <core_list_init+0x5c>

0000000000000fb0 <core_list_insert_new>:
        if ((*memblock+1) >= memblock_end)
     fb0:	00063803          	ld	a6,0(a2)
     fb4:	01080893          	addi	a7,a6,16
     fb8:	04e8f163          	bgeu	a7,a4,ffa <core_list_insert_new+0x4a>
        if ((*datablock+1) >= datablock_end)
     fbc:	6298                	ld	a4,0(a3)
     fbe:	00470313          	addi	t1,a4,4
     fc2:	02f37c63          	bgeu	t1,a5,ffa <core_list_insert_new+0x4a>
        (*memblock)++;
     fc6:	01163023          	sd	a7,0(a2)
        newitem->next=insert_point->next;
     fca:	611c                	ld	a5,0(a0)
        to->data16=from->data16;
     fcc:	00059283          	lh	t0,0(a1)
        to->idx=from->idx;
     fd0:	00259603          	lh	a2,2(a1)
        newitem->next=insert_point->next;
     fd4:	00f83023          	sd	a5,0(a6)
        insert_point->next=newitem;
     fd8:	01053023          	sd	a6,0(a0)
        newitem->info=*datablock;
     fdc:	00e83423          	sd	a4,8(a6)
        (*datablock)++;
     fe0:	0006b383          	ld	t2,0(a3)
     fe4:	00438513          	addi	a0,t2,4
     fe8:	e288                	sd	a0,0(a3)
        copy_info(newitem->info,info);
     fea:	00883583          	ld	a1,8(a6)
}
     fee:	8542                	mv	a0,a6
        to->data16=from->data16;
     ff0:	00559023          	sh	t0,0(a1)
        to->idx=from->idx;
     ff4:	00c59123          	sh	a2,2(a1)
}
     ff8:	8082                	ret
                return NULL;
     ffa:	4801                	li	a6,0
}
     ffc:	8542                	mv	a0,a6
     ffe:	8082                	ret

0000000000001000 <core_list_remove>:
list_head *core_list_remove(list_head *item) {
    1000:	87aa                	mv	a5,a0
        list_head *ret=item->next;
    1002:	6108                	ld	a0,0(a0)
            tmp=item->info;
    1004:	6794                	ld	a3,8(a5)
        item->info=ret->info;
    1006:	6510                	ld	a2,8(a0)
            item->next=item->next->next;
    1008:	6118                	ld	a4,0(a0)
        item->info=ret->info;
    100a:	e790                	sd	a2,8(a5)
        ret->info=tmp;
    100c:	e514                	sd	a3,8(a0)
            item->next=item->next->next;
    100e:	e398                	sd	a4,0(a5)
        ret->next=NULL;
    1010:	00053023          	sd	zero,0(a0)
}
    1014:	8082                	ret

0000000000001016 <core_list_undo_remove>:
        item_removed->info=item_modified->info;
    1016:	6590                	ld	a2,8(a1)
            tmp=item_removed->info;
    1018:	6514                	ld	a3,8(a0)
            item_removed->next=item_modified->next;
    101a:	6198                	ld	a4,0(a1)
        item_removed->info=item_modified->info;
    101c:	e510                	sd	a2,8(a0)
        item_modified->info=tmp;
    101e:	e594                	sd	a3,8(a1)
            item_removed->next=item_modified->next;
    1020:	e118                	sd	a4,0(a0)
        item_modified->next=item_removed;
    1022:	e188                	sd	a0,0(a1)
}
    1024:	8082                	ret

0000000000001026 <core_list_find>:
        if (info->idx>=0) {
    1026:	00259603          	lh	a2,2(a1)
    102a:	00064d63          	bltz	a2,1044 <core_list_find+0x1e>
                while (list && (list->info->idx != info->idx))
    102e:	e501                	bnez	a0,1036 <core_list_find+0x10>
    1030:	a805                	j	1060 <core_list_find+0x3a>
                        list=list->next;
    1032:	6108                	ld	a0,0(a0)
                while (list && (list->info->idx != info->idx))
    1034:	c505                	beqz	a0,105c <core_list_find+0x36>
    1036:	00853303          	ld	t1,8(a0)
    103a:	00231383          	lh	t2,2(t1)
    103e:	fec39ae3          	bne	t2,a2,1032 <core_list_find+0xc>
    1042:	8082                	ret
                    while (list && ((list->info->data16 & 0xff) != info->data16))
    1044:	cd01                	beqz	a0,105c <core_list_find+0x36>
    1046:	00059703          	lh	a4,0(a1)
    104a:	a019                	j	1050 <core_list_find+0x2a>
                            list=list->next;
    104c:	6108                	ld	a0,0(a0)
                    while (list && ((list->info->data16 & 0xff) != info->data16))
    104e:	c901                	beqz	a0,105e <core_list_find+0x38>
    1050:	651c                	ld	a5,8(a0)
    1052:	0007c283          	lbu	t0,0(a5)
    1056:	fee29be3          	bne	t0,a4,104c <core_list_find+0x26>
    105a:	8082                	ret
    105c:	4501                	li	a0,0
}
    105e:	8082                	ret
    1060:	8082                	ret

0000000000001062 <core_list_reverse>:
        while (list) {
    1062:	c92d                	beqz	a0,10d4 <core_list_reverse+0x72>
                tmp=list->next;
    1064:	611c                	ld	a5,0(a0)
        list_head *next=NULL, *tmp;
    1066:	4881                	li	a7,0
                list->next=next;
    1068:	01153023          	sd	a7,0(a0)
        while (list) {
    106c:	86aa                	mv	a3,a0
    106e:	c3bd                	beqz	a5,10d4 <core_list_reverse+0x72>
                tmp=list->next;
    1070:	6398                	ld	a4,0(a5)
                list->next=next;
    1072:	e394                	sd	a3,0(a5)
    1074:	853e                	mv	a0,a5
        while (list) {
    1076:	c325                	beqz	a4,10d6 <core_list_reverse+0x74>
                tmp=list->next;
    1078:	00073283          	ld	t0,0(a4)
                list->next=next;
    107c:	e31c                	sd	a5,0(a4)
    107e:	853a                	mv	a0,a4
        while (list) {
    1080:	04028a63          	beqz	t0,10d4 <core_list_reverse+0x72>
                tmp=list->next;
    1084:	0002b303          	ld	t1,0(t0)
                list->next=next;
    1088:	00e2b023          	sd	a4,0(t0)
    108c:	8516                	mv	a0,t0
        while (list) {
    108e:	04030363          	beqz	t1,10d4 <core_list_reverse+0x72>
                tmp=list->next;
    1092:	00033383          	ld	t2,0(t1)
                list->next=next;
    1096:	00533023          	sd	t0,0(t1)
    109a:	851a                	mv	a0,t1
        while (list) {
    109c:	02038c63          	beqz	t2,10d4 <core_list_reverse+0x72>
                tmp=list->next;
    10a0:	0003b583          	ld	a1,0(t2)
                list->next=next;
    10a4:	0063b023          	sd	t1,0(t2)
    10a8:	851e                	mv	a0,t2
        while (list) {
    10aa:	c58d                	beqz	a1,10d4 <core_list_reverse+0x72>
                tmp=list->next;
    10ac:	0005b803          	ld	a6,0(a1)
                list->next=next;
    10b0:	0075b023          	sd	t2,0(a1)
    10b4:	852e                	mv	a0,a1
        while (list) {
    10b6:	00080f63          	beqz	a6,10d4 <core_list_reverse+0x72>
                tmp=list->next;
    10ba:	00083603          	ld	a2,0(a6)
                list->next=next;
    10be:	00b83023          	sd	a1,0(a6)
    10c2:	8542                	mv	a0,a6
        while (list) {
    10c4:	88c2                	mv	a7,a6
    10c6:	c619                	beqz	a2,10d4 <core_list_reverse+0x72>
    10c8:	8532                	mv	a0,a2
                tmp=list->next;
    10ca:	611c                	ld	a5,0(a0)
                list->next=next;
    10cc:	01153023          	sd	a7,0(a0)
        while (list) {
    10d0:	86aa                	mv	a3,a0
    10d2:	ffd9                	bnez	a5,1070 <core_list_reverse+0xe>
}
    10d4:	8082                	ret
    10d6:	8082                	ret

00000000000010d8 <core_list_mergesort>:
list_head *core_list_mergesort(list_head *list, list_cmp cmp, core_results *res) {
    10d8:	711d                	addi	sp,sp,-96
    10da:	e8a2                	sd	s0,80(sp)
    10dc:	f05a                	sd	s6,32(sp)
    10de:	ec5e                	sd	s7,24(sp)
    10e0:	e466                	sd	s9,8(sp)
    10e2:	e06a                	sd	s10,0(sp)
    10e4:	ec86                	sd	ra,88(sp)
    10e6:	e4a6                	sd	s1,72(sp)
    10e8:	e0ca                	sd	s2,64(sp)
    10ea:	fc4e                	sd	s3,56(sp)
    10ec:	f852                	sd	s4,48(sp)
    10ee:	f456                	sd	s5,40(sp)
    10f0:	e862                	sd	s8,16(sp)
    10f2:	842a                	mv	s0,a0
    10f4:	8b2e                	mv	s6,a1
    10f6:	8d32                	mv	s10,a2
      insize = 1;
    10f8:	4b85                	li	s7,1
                if (nmerges <= 1)  /* allow for nmerges==0, the empty list case */
    10fa:	4c85                	li	s9,1
                while (p) {
    10fc:	c861                	beqz	s0,11cc <core_list_mergesort+0xf4>
            nmerges = 0; /* count number of merges we do in this pass */
    10fe:	4c01                	li	s8,0
            tail = NULL;
    1100:	4481                	li	s1,0
            list = NULL;
    1102:	4a81                	li	s5,0
                      nmerges++; /* there exists a merge to be done */
    1104:	007bf713          	andi	a4,s7,7
    1108:	2c05                	addiw	s8,s8,1
    110a:	87a2                	mv	a5,s0
                      psize = 0;
    110c:	4901                	li	s2,0
    110e:	cb31                	beqz	a4,1162 <core_list_mergesort+0x8a>
    1110:	4685                	li	a3,1
    1112:	04d70363          	beq	a4,a3,1158 <core_list_mergesort+0x80>
    1116:	4089                	li	ra,2
    1118:	02170d63          	beq	a4,ra,1152 <core_list_mergesort+0x7a>
    111c:	428d                	li	t0,3
    111e:	02570763          	beq	a4,t0,114c <core_list_mergesort+0x74>
    1122:	4311                	li	t1,4
    1124:	02670163          	beq	a4,t1,1146 <core_list_mergesort+0x6e>
    1128:	4395                	li	t2,5
    112a:	00770b63          	beq	a4,t2,1140 <core_list_mergesort+0x68>
    112e:	4519                	li	a0,6
    1130:	00a70563          	beq	a4,a0,113a <core_list_mergesort+0x62>
                                  q = q->next;
    1134:	601c                	ld	a5,0(s0)
                            psize++;
    1136:	4905                	li	s2,1
                            if (!q) break;
    1138:	cb9d                	beqz	a5,116e <core_list_mergesort+0x96>
                                  q = q->next;
    113a:	639c                	ld	a5,0(a5)
                            psize++;
    113c:	2905                	addiw	s2,s2,1
                            if (!q) break;
    113e:	cb85                	beqz	a5,116e <core_list_mergesort+0x96>
                                  q = q->next;
    1140:	639c                	ld	a5,0(a5)
                            psize++;
    1142:	2905                	addiw	s2,s2,1
                            if (!q) break;
    1144:	c78d                	beqz	a5,116e <core_list_mergesort+0x96>
                                  q = q->next;
    1146:	639c                	ld	a5,0(a5)
                            psize++;
    1148:	2905                	addiw	s2,s2,1
                            if (!q) break;
    114a:	c395                	beqz	a5,116e <core_list_mergesort+0x96>
                                  q = q->next;
    114c:	639c                	ld	a5,0(a5)
                            psize++;
    114e:	2905                	addiw	s2,s2,1
                            if (!q) break;
    1150:	cf99                	beqz	a5,116e <core_list_mergesort+0x96>
                                  q = q->next;
    1152:	639c                	ld	a5,0(a5)
                            psize++;
    1154:	2905                	addiw	s2,s2,1
                            if (!q) break;
    1156:	cf81                	beqz	a5,116e <core_list_mergesort+0x96>
                                  q = q->next;
    1158:	639c                	ld	a5,0(a5)
                            psize++;
    115a:	2905                	addiw	s2,s2,1
                            if (!q) break;
    115c:	cb89                	beqz	a5,116e <core_list_mergesort+0x96>
                      for (i = 0; i < insize; i++) {
    115e:	012b8863          	beq	s7,s2,116e <core_list_mergesort+0x96>
                                  q = q->next;
    1162:	639c                	ld	a5,0(a5)
                            psize++;
    1164:	2905                	addiw	s2,s2,1
                            if (!q) break;
    1166:	c781                	beqz	a5,116e <core_list_mergesort+0x96>
                                  q = q->next;
    1168:	639c                	ld	a5,0(a5)
                            psize++;
    116a:	2905                	addiw	s2,s2,1
                            if (!q) break;
    116c:	f7f9                	bnez	a5,113a <core_list_mergesort+0x62>
                                                      list = e;
    116e:	8a22                	mv	s4,s0
    1170:	89de                	mv	s3,s7
    1172:	843e                	mv	s0,a5
                          while (psize > 0 || (qsize > 0 && q)) {
    1174:	02090463          	beqz	s2,119c <core_list_mergesort+0xc4>
                                                } else if (qsize == 0 || !q) {
    1178:	02098c63          	beqz	s3,11b0 <core_list_mergesort+0xd8>
    117c:	c815                	beqz	s0,11b0 <core_list_mergesort+0xd8>
                                                    } else if (cmp(p->info,q->info,res) <= 0) {
    117e:	640c                	ld	a1,8(s0)
    1180:	008a3503          	ld	a0,8(s4)
    1184:	866a                	mv	a2,s10
    1186:	9b02                	jalr	s6
    1188:	02a05463          	blez	a0,11b0 <core_list_mergesort+0xd8>
                                                                  e = q; q = q->next; qsize--;
    118c:	85a2                	mv	a1,s0
    118e:	6000                	ld	s0,0(s0)
    1190:	39fd                	addiw	s3,s3,-1
                                            if (tail) {
    1192:	cc81                	beqz	s1,11aa <core_list_mergesort+0xd2>
                                                  tail->next = e;
    1194:	e08c                	sd	a1,0(s1)
                                                      list = e;
    1196:	84ae                	mv	s1,a1
                          while (psize > 0 || (qsize > 0 && q)) {
    1198:	fe0910e3          	bnez	s2,1178 <core_list_mergesort+0xa0>
    119c:	00098f63          	beqz	s3,11ba <core_list_mergesort+0xe2>
    11a0:	cc11                	beqz	s0,11bc <core_list_mergesort+0xe4>
                                                      e = q; q = q->next; qsize--;
    11a2:	85a2                	mv	a1,s0
    11a4:	39fd                	addiw	s3,s3,-1
    11a6:	6000                	ld	s0,0(s0)
                                            if (tail) {
    11a8:	f4f5                	bnez	s1,1194 <core_list_mergesort+0xbc>
                                                      list = e;
    11aa:	8aae                	mv	s5,a1
    11ac:	84ae                	mv	s1,a1
    11ae:	b7ed                	j	1198 <core_list_mergesort+0xc0>
                                                              e = p; p = p->next; psize--;
    11b0:	85d2                	mv	a1,s4
    11b2:	397d                	addiw	s2,s2,-1
    11b4:	000a3a03          	ld	s4,0(s4)
    11b8:	bfe9                	j	1192 <core_list_mergesort+0xba>
                while (p) {
    11ba:	f429                	bnez	s0,1104 <core_list_mergesort+0x2c>
              tail->next = NULL;
    11bc:	0004b023          	sd	zero,0(s1)
                if (nmerges <= 1)  /* allow for nmerges==0, the empty list case */
    11c0:	019c0963          	beq	s8,s9,11d2 <core_list_mergesort+0xfa>
                insize *= 2;
    11c4:	001b9b9b          	slliw	s7,s7,0x1
            p = list;
    11c8:	8456                	mv	s0,s5
    11ca:	bf0d                	j	10fc <core_list_mergesort+0x24>
              tail->next = NULL;
    11cc:	00003023          	sd	zero,0(zero) # 0 <_start>
    11d0:	9002                	ebreak
          }
#if COMPILER_REQUIRES_SORT_RETURN
        return list;
#endif
}
    11d2:	60e6                	ld	ra,88(sp)
    11d4:	6446                	ld	s0,80(sp)
    11d6:	64a6                	ld	s1,72(sp)
    11d8:	6906                	ld	s2,64(sp)
    11da:	79e2                	ld	s3,56(sp)
    11dc:	7a42                	ld	s4,48(sp)
    11de:	7b02                	ld	s6,32(sp)
    11e0:	6be2                	ld	s7,24(sp)
    11e2:	6c42                	ld	s8,16(sp)
    11e4:	6ca2                	ld	s9,8(sp)
    11e6:	6d02                	ld	s10,0(sp)
    11e8:	8556                	mv	a0,s5
    11ea:	7aa2                	ld	s5,40(sp)
    11ec:	6125                	addi	sp,sp,96
    11ee:	8082                	ret

00000000000011f0 <matrix_test>:
           4 - Multiply a matrix by a matrix.
           5 - Add a constant value to all elements of a matrix.

           After the last step, matrix A is back to original contents.
       */
    ee_s16 matrix_test(ee_u32 N, MATRES *C, MATDAT *A, MATDAT *B, MATDAT val) {
    11f0:	7131                	addi	sp,sp,-192
            ee_u16 crc=0;
            MATDAT clipval=matrix_big(val);
    11f2:	77fd                	lui	a5,0xfffff
    ee_s16 matrix_test(ee_u32 N, MATRES *C, MATDAT *A, MATDAT *B, MATDAT val) {
    11f4:	fd06                	sd	ra,184(sp)
            MATDAT clipval=matrix_big(val);
    11f6:	00f760b3          	or	ra,a4,a5
    ee_s16 matrix_test(ee_u32 N, MATRES *C, MATDAT *A, MATDAT *B, MATDAT val) {
    11fa:	f526                	sd	s1,168(sp)
    11fc:	f8e2                	sd	s8,112(sp)
    11fe:	f922                	sd	s0,176(sp)
            crc=crc16(matrix_sum(N,C,clipval),crc);
#if CORE_DEBUG
            printmatC(C,N,"matrix_mul_matrix_bitextract");
#endif

            matrix_add_const(N,A,-val); /* return matrix to initial value */
    1200:	03071c13          	slli	s8,a4,0x30
    ee_s16 matrix_test(ee_u32 N, MATRES *C, MATDAT *A, MATDAT *B, MATDAT val) {
    1204:	f14a                	sd	s2,160(sp)
    1206:	ed4e                	sd	s3,152(sp)
    1208:	e952                	sd	s4,144(sp)
    120a:	e556                	sd	s5,136(sp)
    120c:	e15a                	sd	s6,128(sp)
    120e:	fcde                	sd	s7,120(sp)
    1210:	f4e6                	sd	s9,104(sp)
    1212:	f0ea                	sd	s10,96(sp)
    1214:	ecee                	sd	s11,88(sp)
    1216:	e4ba                	sd	a4,72(sp)
    1218:	e42e                	sd	a1,8(sp)
    121a:	fc32                	sd	a2,56(sp)
    121c:	e836                	sd	a3,16(sp)
            MATDAT clipval=matrix_big(val);
    121e:	e086                	sd	ra,64(sp)
    ee_s16 matrix_test(ee_u32 N, MATRES *C, MATDAT *A, MATDAT *B, MATDAT val) {
    1220:	84aa                	mv	s1,a0
            matrix_add_const(N,A,-val); /* return matrix to initial value */
    1222:	030c5c13          	srli	s8,s8,0x30
    /* Function: matrix_add_const
           Add a constant value to all elements of a matrix.
       */
    void matrix_add_const(ee_u32 N, MATDAT *A, MATDAT val) {
            ee_u32 i,j;
            for (i=0; i<N; i++) {
    1226:	e119                	bnez	a0,122c <matrix_test+0x3c>
    1228:	7990106f          	j	31c0 <matrix_test+0x1fd0>
    122c:	010c1313          	slli	t1,s8,0x10
    1230:	63a5                	lui	t2,0x9
    1232:	006c6533          	or	a0,s8,t1
    1236:	8eb2                	mv	t4,a2
    1238:	020c1413          	slli	s0,s8,0x20
                    for (j=0; j<N; j++) {
                            A[i*N+j] += val;
    123c:	8503b603          	ld	a2,-1968(t2) # 8850 <_end>
    1240:	030c1593          	slli	a1,s8,0x30
    1244:	00856833          	or	a6,a0,s0
    1248:	68a5                	lui	a7,0x9
    124a:	00b866b3          	or	a3,a6,a1
    124e:	00149913          	slli	s2,s1,0x1
            for (i=0; i<N; i++) {
    1252:	4a01                	li	s4,0
    1254:	fff48993          	addi	s3,s1,-1
                            A[i*N+j] += val;
    1258:	8588b503          	ld	a0,-1960(a7) # 8858 <_end+0x8>
    125c:	ec4a                	sd	s2,24(sp)
            for (i=0; i<N; i++) {
    125e:	8376                	mv	t1,t4
    1260:	4881                	li	a7,0
    1262:	f04e                	sd	s3,32(sp)
                            A[i*N+j] += val;
    1264:	00c6f5b3          	and	a1,a3,a2
    1268:	e052                	sd	s4,0(sp)
                    for (j=0; j<N; j++) {
    126a:	00135a93          	srli	s5,t1,0x1
    126e:	41500b33          	neg	s6,s5
    1272:	003b7b93          	andi	s7,s6,3
    1276:	003b8d13          	addi	s10,s7,3
    127a:	4c95                	li	s9,5
    127c:	019d7363          	bgeu	s10,s9,1282 <matrix_test+0x92>
    1280:	4d15                	li	s10,5
    1282:	7d82                	ld	s11,32(sp)
    1284:	01adf463          	bgeu	s11,s10,128c <matrix_test+0x9c>
    1288:	7330106f          	j	31ba <matrix_test+0x1fca>
    128c:	4701                	li	a4,0
    128e:	020b8c63          	beqz	s7,12c6 <matrix_test+0xd6>
                            A[i*N+j] += val;
    1292:	00035e03          	lhu	t3,0(t1)
                    for (j=0; j<N; j++) {
    1296:	4705                	li	a4,1
                            A[i*N+j] += val;
    1298:	018e0f3b          	addw	t5,t3,s8
    129c:	01e31023          	sh	t5,0(t1)
                    for (j=0; j<N; j++) {
    12a0:	02eb8363          	beq	s7,a4,12c6 <matrix_test+0xd6>
                            A[i*N+j] += val;
    12a4:	00235f83          	lhu	t6,2(t1)
    12a8:	478d                	li	a5,3
                    for (j=0; j<N; j++) {
    12aa:	4709                	li	a4,2
                            A[i*N+j] += val;
    12ac:	018f80bb          	addw	ra,t6,s8
    12b0:	00131123          	sh	ra,2(t1)
                    for (j=0; j<N; j++) {
    12b4:	00fb9963          	bne	s7,a5,12c6 <matrix_test+0xd6>
                            A[i*N+j] += val;
    12b8:	00435283          	lhu	t0,4(t1)
                    for (j=0; j<N; j++) {
    12bc:	470d                	li	a4,3
                            A[i*N+j] += val;
    12be:	018283bb          	addw	t2,t0,s8
    12c2:	00731223          	sh	t2,4(t1)
                    for (j=0; j<N; j++) {
    12c6:	41748433          	sub	s0,s1,s7
    12ca:	00245813          	srli	a6,s0,0x2
    12ce:	00381913          	slli	s2,a6,0x3
    12d2:	ff890a13          	addi	s4,s2,-8
    12d6:	011b89b3          	add	s3,s7,a7
    12da:	003a5a93          	srli	s5,s4,0x3
    12de:	00199b13          	slli	s6,s3,0x1
    12e2:	001a8b93          	addi	s7,s5,1
    12e6:	016e87b3          	add	a5,t4,s6
    12ea:	007bfc93          	andi	s9,s7,7
    12ee:	00f900b3          	add	ra,s2,a5
    12f2:	0e0c8f63          	beqz	s9,13f0 <matrix_test+0x200>
    12f6:	4d05                	li	s10,1
    12f8:	0dac8b63          	beq	s9,s10,13ce <matrix_test+0x1de>
    12fc:	4d89                	li	s11,2
    12fe:	0bbc8963          	beq	s9,s11,13b0 <matrix_test+0x1c0>
    1302:	4e0d                	li	t3,3
    1304:	09cc8763          	beq	s9,t3,1392 <matrix_test+0x1a2>
    1308:	4f11                	li	t5,4
    130a:	07ec8563          	beq	s9,t5,1374 <matrix_test+0x184>
    130e:	4f95                	li	t6,5
    1310:	05fc8363          	beq	s9,t6,1356 <matrix_test+0x166>
    1314:	4299                	li	t0,6
    1316:	025c8163          	beq	s9,t0,1338 <matrix_test+0x148>
                            A[i*N+j] += val;
    131a:	0007b383          	ld	t2,0(a5) # fffffffffffff000 <tohost+0xffffffff8fa7f000>
    131e:	07a1                	addi	a5,a5,8
    1320:	00c3f933          	and	s2,t2,a2
    1324:	00d3c833          	xor	a6,t2,a3
    1328:	00b90a33          	add	s4,s2,a1
    132c:	00a879b3          	and	s3,a6,a0
    1330:	013a4ab3          	xor	s5,s4,s3
    1334:	ff57bc23          	sd	s5,-8(a5)
    1338:	0007bb03          	ld	s6,0(a5)
    133c:	07a1                	addi	a5,a5,8
    133e:	00cb7bb3          	and	s7,s6,a2
    1342:	00db4cb3          	xor	s9,s6,a3
    1346:	00bb8d33          	add	s10,s7,a1
    134a:	00acfdb3          	and	s11,s9,a0
    134e:	01bd4e33          	xor	t3,s10,s11
    1352:	ffc7bc23          	sd	t3,-8(a5)
    1356:	0007bf03          	ld	t5,0(a5)
    135a:	07a1                	addi	a5,a5,8
    135c:	00cf7fb3          	and	t6,t5,a2
    1360:	00df42b3          	xor	t0,t5,a3
    1364:	00bf83b3          	add	t2,t6,a1
    1368:	00a2f933          	and	s2,t0,a0
    136c:	0123c833          	xor	a6,t2,s2
    1370:	ff07bc23          	sd	a6,-8(a5)
    1374:	0007ba03          	ld	s4,0(a5)
    1378:	07a1                	addi	a5,a5,8
    137a:	00ca79b3          	and	s3,s4,a2
    137e:	00da4ab3          	xor	s5,s4,a3
    1382:	00b98b33          	add	s6,s3,a1
    1386:	00aafbb3          	and	s7,s5,a0
    138a:	017b4cb3          	xor	s9,s6,s7
    138e:	ff97bc23          	sd	s9,-8(a5)
    1392:	0007bd03          	ld	s10,0(a5)
    1396:	07a1                	addi	a5,a5,8
    1398:	00cd7db3          	and	s11,s10,a2
    139c:	00dd4f33          	xor	t5,s10,a3
    13a0:	00bd8e33          	add	t3,s11,a1
    13a4:	00af7fb3          	and	t6,t5,a0
    13a8:	01fe42b3          	xor	t0,t3,t6
    13ac:	fe57bc23          	sd	t0,-8(a5)
    13b0:	0007b383          	ld	t2,0(a5)
    13b4:	07a1                	addi	a5,a5,8
    13b6:	00c3f933          	and	s2,t2,a2
    13ba:	00d3c833          	xor	a6,t2,a3
    13be:	00b90a33          	add	s4,s2,a1
    13c2:	00a879b3          	and	s3,a6,a0
    13c6:	013a4ab3          	xor	s5,s4,s3
    13ca:	ff57bc23          	sd	s5,-8(a5)
    13ce:	0007bb03          	ld	s6,0(a5)
    13d2:	07a1                	addi	a5,a5,8
    13d4:	00cb7bb3          	and	s7,s6,a2
    13d8:	00db4cb3          	xor	s9,s6,a3
    13dc:	00bb8d33          	add	s10,s7,a1
    13e0:	00acfdb3          	and	s11,s9,a0
    13e4:	01bd4f33          	xor	t5,s10,s11
    13e8:	ffe7bc23          	sd	t5,-8(a5)
                    for (j=0; j<N; j++) {
    13ec:	0c178e63          	beq	a5,ra,14c8 <matrix_test+0x2d8>
    13f0:	f422                	sd	s0,40(sp)
    13f2:	f83a                	sd	a4,48(sp)
                            A[i*N+j] += val;
    13f4:	6380                	ld	s0,0(a5)
    13f6:	0107b903          	ld	s2,16(a5)
    13fa:	0307ba03          	ld	s4,48(a5)
    13fe:	0387bb83          	ld	s7,56(a5)
    1402:	0087be03          	ld	t3,8(a5)
    1406:	6f98                	ld	a4,24(a5)
    1408:	0207b283          	ld	t0,32(a5)
    140c:	0287bf83          	ld	t6,40(a5)
    1410:	00c47b33          	and	s6,s0,a2
    1414:	00d443b3          	xor	t2,s0,a3
    1418:	00ce7db3          	and	s11,t3,a2
    141c:	00c97d33          	and	s10,s2,a2
    1420:	00d94833          	xor	a6,s2,a3
    1424:	00c77cb3          	and	s9,a4,a2
    1428:	00c2fab3          	and	s5,t0,a2
    142c:	00cff9b3          	and	s3,t6,a2
    1430:	00ca7933          	and	s2,s4,a2
    1434:	00da4f33          	xor	t5,s4,a3
    1438:	00cbf433          	and	s0,s7,a2
    143c:	00dbca33          	xor	s4,s7,a3
    1440:	00de4e33          	xor	t3,t3,a3
    1444:	8f35                	xor	a4,a4,a3
    1446:	00d2c2b3          	xor	t0,t0,a3
    144a:	00dfcfb3          	xor	t6,t6,a3
    144e:	9b2e                	add	s6,s6,a1
    1450:	00a3f3b3          	and	t2,t2,a0
    1454:	9dae                	add	s11,s11,a1
    1456:	00ae7e33          	and	t3,t3,a0
    145a:	9d2e                	add	s10,s10,a1
    145c:	00a87833          	and	a6,a6,a0
    1460:	9cae                	add	s9,s9,a1
    1462:	00aa7bb3          	and	s7,s4,a0
    1466:	8f69                	and	a4,a4,a0
    1468:	9aae                	add	s5,s5,a1
    146a:	00a2f2b3          	and	t0,t0,a0
    146e:	99ae                	add	s3,s3,a1
    1470:	00afffb3          	and	t6,t6,a0
    1474:	992e                	add	s2,s2,a1
    1476:	00af7f33          	and	t5,t5,a0
    147a:	942e                	add	s0,s0,a1
    147c:	007b4a33          	xor	s4,s6,t2
    1480:	01cdcb33          	xor	s6,s11,t3
    1484:	010d43b3          	xor	t2,s10,a6
    1488:	00eccdb3          	xor	s11,s9,a4
    148c:	005ace33          	xor	t3,s5,t0
    1490:	01f9cd33          	xor	s10,s3,t6
    1494:	01e94833          	xor	a6,s2,t5
    1498:	01744cb3          	xor	s9,s0,s7
    149c:	0147b023          	sd	s4,0(a5)
    14a0:	0167b423          	sd	s6,8(a5)
    14a4:	0077b823          	sd	t2,16(a5)
    14a8:	01b7bc23          	sd	s11,24(a5)
    14ac:	03c7b023          	sd	t3,32(a5)
    14b0:	03a7b423          	sd	s10,40(a5)
    14b4:	0307b823          	sd	a6,48(a5)
    14b8:	0397bc23          	sd	s9,56(a5)
                    for (j=0; j<N; j++) {
    14bc:	04078793          	addi	a5,a5,64
    14c0:	f2179ae3          	bne	a5,ra,13f4 <matrix_test+0x204>
    14c4:	7422                	ld	s0,40(sp)
    14c6:	7742                	ld	a4,48(sp)
    14c8:	ffc47093          	andi	ra,s0,-4
    14cc:	9706                	add	a4,a4,ra
    14ce:	0a808d63          	beq	ra,s0,1588 <matrix_test+0x398>
                            A[i*N+j] += val;
    14d2:	011707b3          	add	a5,a4,a7
    14d6:	00179a93          	slli	s5,a5,0x1
    14da:	015e82b3          	add	t0,t4,s5
    14de:	0002d983          	lhu	s3,0(t0)
                    for (j=0; j<N; j++) {
    14e2:	00170f93          	addi	t6,a4,1
                            A[i*N+j] += val;
    14e6:	0189893b          	addw	s2,s3,s8
    14ea:	01229023          	sh	s2,0(t0)
                    for (j=0; j<N; j++) {
    14ee:	089ffd63          	bgeu	t6,s1,1588 <matrix_test+0x398>
                            A[i*N+j] += val;
    14f2:	011f8f33          	add	t5,t6,a7
    14f6:	001f1413          	slli	s0,t5,0x1
    14fa:	008e8bb3          	add	s7,t4,s0
    14fe:	000bda03          	lhu	s4,0(s7)
                    for (j=0; j<N; j++) {
    1502:	00270b13          	addi	s6,a4,2
                            A[i*N+j] += val;
    1506:	018a03bb          	addw	t2,s4,s8
    150a:	007b9023          	sh	t2,0(s7)
                    for (j=0; j<N; j++) {
    150e:	069b7d63          	bgeu	s6,s1,1588 <matrix_test+0x398>
                            A[i*N+j] += val;
    1512:	011b0db3          	add	s11,s6,a7
    1516:	001d9e13          	slli	t3,s11,0x1
    151a:	01ce8d33          	add	s10,t4,t3
    151e:	000d5c83          	lhu	s9,0(s10)
                    for (j=0; j<N; j++) {
    1522:	00370813          	addi	a6,a4,3
                            A[i*N+j] += val;
    1526:	018c80bb          	addw	ra,s9,s8
    152a:	001d1023          	sh	ra,0(s10)
                    for (j=0; j<N; j++) {
    152e:	04987d63          	bgeu	a6,s1,1588 <matrix_test+0x398>
                            A[i*N+j] += val;
    1532:	011807b3          	add	a5,a6,a7
    1536:	00179a93          	slli	s5,a5,0x1
    153a:	015e82b3          	add	t0,t4,s5
    153e:	0002d983          	lhu	s3,0(t0)
                    for (j=0; j<N; j++) {
    1542:	00470f93          	addi	t6,a4,4
                            A[i*N+j] += val;
    1546:	0189893b          	addw	s2,s3,s8
    154a:	01229023          	sh	s2,0(t0)
                    for (j=0; j<N; j++) {
    154e:	029ffd63          	bgeu	t6,s1,1588 <matrix_test+0x398>
                            A[i*N+j] += val;
    1552:	011f8f33          	add	t5,t6,a7
    1556:	001f1413          	slli	s0,t5,0x1
    155a:	008e8bb3          	add	s7,t4,s0
    155e:	000bda03          	lhu	s4,0(s7)
                    for (j=0; j<N; j++) {
    1562:	0715                	addi	a4,a4,5
                            A[i*N+j] += val;
    1564:	018a0b3b          	addw	s6,s4,s8
    1568:	016b9023          	sh	s6,0(s7)
                    for (j=0; j<N; j++) {
    156c:	00977e63          	bgeu	a4,s1,1588 <matrix_test+0x398>
                            A[i*N+j] += val;
    1570:	011703b3          	add	t2,a4,a7
    1574:	00139d93          	slli	s11,t2,0x1
    1578:	01be8e33          	add	t3,t4,s11
    157c:	000e5d03          	lhu	s10,0(t3)
    1580:	018d0cbb          	addw	s9,s10,s8
    1584:	019e1023          	sh	s9,0(t3)
            for (i=0; i<N; i++) {
    1588:	6802                	ld	a6,0(sp)
    158a:	60e2                	ld	ra,24(sp)
    158c:	98a6                	add	a7,a7,s1
    158e:	0805                	addi	a6,a6,1
    1590:	9306                	add	t1,t1,ra
    1592:	01048463          	beq	s1,a6,159a <matrix_test+0x3aa>
    1596:	e042                	sd	a6,0(sp)
    1598:	b9c9                	j	126a <matrix_test+0x7a>
    159a:	75e2                	ld	a1,56(sp)
    159c:	6a02                	ld	s4,0(sp)
                            C[i*N+j]=(MATRES)A[i*N+j] * (MATRES)val;
    159e:	4626                	lw	a2,72(sp)
    15a0:	6fa2                	ld	t6,8(sp)
    15a2:	40900533          	neg	a0,s1
    15a6:	8286                	mv	t0,ra
    15a8:	9586                	add	a1,a1,ra
    15aa:	00151e13          	slli	t3,a0,0x1
    15ae:	4881                	li	a7,0
    15b0:	4301                	li	t1,0
                    for (j=0; j<N; j++) {
    15b2:	41c006b3          	neg	a3,t3
    15b6:	ffe68e93          	addi	t4,a3,-2
    15ba:	001ed793          	srli	a5,t4,0x1
    15be:	00178a93          	addi	s5,a5,1
    15c2:	00289993          	slli	s3,a7,0x2
    15c6:	007af913          	andi	s2,s5,7
    15ca:	00be06b3          	add	a3,t3,a1
    15ce:	01f987b3          	add	a5,s3,t6
    15d2:	08090e63          	beqz	s2,166e <matrix_test+0x47e>
    15d6:	4f05                	li	t5,1
    15d8:	09e90163          	beq	s2,t5,165a <matrix_test+0x46a>
    15dc:	4409                	li	s0,2
    15de:	06890663          	beq	s2,s0,164a <matrix_test+0x45a>
    15e2:	4b8d                	li	s7,3
    15e4:	05790b63          	beq	s2,s7,163a <matrix_test+0x44a>
    15e8:	4711                	li	a4,4
    15ea:	04e90063          	beq	s2,a4,162a <matrix_test+0x43a>
    15ee:	4b15                	li	s6,5
    15f0:	03690563          	beq	s2,s6,161a <matrix_test+0x42a>
    15f4:	4399                	li	t2,6
    15f6:	00790a63          	beq	s2,t2,160a <matrix_test+0x41a>
                            C[i*N+j]=(MATRES)A[i*N+j] * (MATRES)val;
    15fa:	00069d83          	lh	s11,0(a3)
                    for (j=0; j<N; j++) {
    15fe:	0791                	addi	a5,a5,4
    1600:	0689                	addi	a3,a3,2
                            C[i*N+j]=(MATRES)A[i*N+j] * (MATRES)val;
    1602:	02cd8d3b          	mulw	s10,s11,a2
    1606:	ffa7ae23          	sw	s10,-4(a5)
    160a:	00069c83          	lh	s9,0(a3)
                    for (j=0; j<N; j++) {
    160e:	0791                	addi	a5,a5,4
    1610:	0689                	addi	a3,a3,2
                            C[i*N+j]=(MATRES)A[i*N+j] * (MATRES)val;
    1612:	02cc80bb          	mulw	ra,s9,a2
    1616:	fe17ae23          	sw	ra,-4(a5)
    161a:	00069503          	lh	a0,0(a3)
                    for (j=0; j<N; j++) {
    161e:	0791                	addi	a5,a5,4
    1620:	0689                	addi	a3,a3,2
                            C[i*N+j]=(MATRES)A[i*N+j] * (MATRES)val;
    1622:	02c50ebb          	mulw	t4,a0,a2
    1626:	ffd7ae23          	sw	t4,-4(a5)
    162a:	00069a83          	lh	s5,0(a3)
                    for (j=0; j<N; j++) {
    162e:	0791                	addi	a5,a5,4
    1630:	0689                	addi	a3,a3,2
                            C[i*N+j]=(MATRES)A[i*N+j] * (MATRES)val;
    1632:	02ca89bb          	mulw	s3,s5,a2
    1636:	ff37ae23          	sw	s3,-4(a5)
    163a:	00069903          	lh	s2,0(a3)
                    for (j=0; j<N; j++) {
    163e:	0791                	addi	a5,a5,4
    1640:	0689                	addi	a3,a3,2
                            C[i*N+j]=(MATRES)A[i*N+j] * (MATRES)val;
    1642:	02c90f3b          	mulw	t5,s2,a2
    1646:	ffe7ae23          	sw	t5,-4(a5)
    164a:	00069403          	lh	s0,0(a3)
                    for (j=0; j<N; j++) {
    164e:	0791                	addi	a5,a5,4
    1650:	0689                	addi	a3,a3,2
                            C[i*N+j]=(MATRES)A[i*N+j] * (MATRES)val;
    1652:	02c40bbb          	mulw	s7,s0,a2
    1656:	ff77ae23          	sw	s7,-4(a5)
    165a:	00069703          	lh	a4,0(a3)
                    for (j=0; j<N; j++) {
    165e:	0791                	addi	a5,a5,4
    1660:	0689                	addi	a3,a3,2
                            C[i*N+j]=(MATRES)A[i*N+j] * (MATRES)val;
    1662:	02c70b3b          	mulw	s6,a4,a2
    1666:	ff67ae23          	sw	s6,-4(a5)
                    for (j=0; j<N; j++) {
    166a:	06b68763          	beq	a3,a1,16d8 <matrix_test+0x4e8>
                            C[i*N+j]=(MATRES)A[i*N+j] * (MATRES)val;
    166e:	00069d83          	lh	s11,0(a3)
    1672:	00269d03          	lh	s10,2(a3)
    1676:	00469c83          	lh	s9,4(a3)
    167a:	00669383          	lh	t2,6(a3)
    167e:	00869083          	lh	ra,8(a3)
    1682:	00a69e83          	lh	t4,10(a3)
    1686:	00c69503          	lh	a0,12(a3)
    168a:	00e69a83          	lh	s5,14(a3)
    168e:	02cd89bb          	mulw	s3,s11,a2
                    for (j=0; j<N; j++) {
    1692:	06c1                	addi	a3,a3,16
    1694:	02078793          	addi	a5,a5,32
                            C[i*N+j]=(MATRES)A[i*N+j] * (MATRES)val;
    1698:	02cd093b          	mulw	s2,s10,a2
    169c:	ff37a023          	sw	s3,-32(a5)
    16a0:	02cc8f3b          	mulw	t5,s9,a2
    16a4:	ff27a223          	sw	s2,-28(a5)
    16a8:	02c3843b          	mulw	s0,t2,a2
    16ac:	ffe7a423          	sw	t5,-24(a5)
    16b0:	02c08bbb          	mulw	s7,ra,a2
    16b4:	fe87a623          	sw	s0,-20(a5)
    16b8:	02ce873b          	mulw	a4,t4,a2
    16bc:	ff77a823          	sw	s7,-16(a5)
    16c0:	02c50b3b          	mulw	s6,a0,a2
    16c4:	fee7aa23          	sw	a4,-12(a5)
    16c8:	02ca8dbb          	mulw	s11,s5,a2
    16cc:	ff67ac23          	sw	s6,-8(a5)
    16d0:	ffb7ae23          	sw	s11,-4(a5)
                    for (j=0; j<N; j++) {
    16d4:	f8b69de3          	bne	a3,a1,166e <matrix_test+0x47e>
            for (i=0; i<N; i++) {
    16d8:	00130793          	addi	a5,t1,1
    16dc:	98c2                	add	a7,a7,a6
    16de:	005685b3          	add	a1,a3,t0
    16e2:	006a0463          	beq	s4,t1,16ea <matrix_test+0x4fa>
    16e6:	833e                	mv	t1,a5
    16e8:	b5e9                	j	15b2 <matrix_test+0x3c2>
    16ea:	62a2                	ld	t0,8(sp)
                            if (tmp>clipval) {
    16ec:	4586                	lw	a1,64(sp)
    16ee:	410006b3          	neg	a3,a6
    16f2:	00281313          	slli	t1,a6,0x2
    16f6:	00628833          	add	a6,t0,t1
    16fa:	00269513          	slli	a0,a3,0x2
    16fe:	4d81                	li	s11,0
    1700:	4e01                	li	t3,0
    1702:	4701                	li	a4,0
    1704:	4881                	li	a7,0
                    for (j=0; j<N; j++) {
    1706:	40a00633          	neg	a2,a0
    170a:	ffc60f93          	addi	t6,a2,-4
    170e:	002fdd13          	srli	s10,t6,0x2
    1712:	001d0c93          	addi	s9,s10,1
    1716:	003cf393          	andi	t2,s9,3
    171a:	01050eb3          	add	t4,a0,a6
    171e:	12038263          	beqz	t2,1842 <matrix_test+0x652>
    1722:	4085                	li	ra,1
    1724:	04138b63          	beq	t2,ra,177a <matrix_test+0x58a>
    1728:	4a89                	li	s5,2
    172a:	03538563          	beq	t2,s5,1754 <matrix_test+0x564>
                            cur=C[i*N+j];
    172e:	89f2                	mv	s3,t3
    1730:	000eae03          	lw	t3,0(t4)
                                    ret+=10;
    1734:	030d9913          	slli	s2,s11,0x30
    1738:	03095f13          	srli	t5,s2,0x30
                            tmp+=cur;
    173c:	00ee073b          	addw	a4,t3,a4
                            if (tmp>clipval) {
    1740:	1ce5d463          	bge	a1,a4,1908 <matrix_test+0x718>
                                    ret+=10;
    1744:	00af071b          	addiw	a4,t5,10
    1748:	01071d9b          	slliw	s11,a4,0x10
    174c:	410ddd9b          	sraiw	s11,s11,0x10
                                    tmp=0;
    1750:	4701                	li	a4,0
                    for (j=0; j<N; j++) {
    1752:	0e91                	addi	t4,t4,4
                            cur=C[i*N+j];
    1754:	86f2                	mv	a3,t3
    1756:	000eae03          	lw	t3,0(t4)
                                    ret+=10;
    175a:	030d9793          	slli	a5,s11,0x30
    175e:	0307d293          	srli	t0,a5,0x30
                            tmp+=cur;
    1762:	00ee073b          	addw	a4,t3,a4
                            if (tmp>clipval) {
    1766:	18e5d863          	bge	a1,a4,18f6 <matrix_test+0x706>
                                    ret+=10;
    176a:	00a28c9b          	addiw	s9,t0,10
    176e:	010c939b          	slliw	t2,s9,0x10
    1772:	4103dd9b          	sraiw	s11,t2,0x10
                                    tmp=0;
    1776:	4701                	li	a4,0
                    for (j=0; j<N; j++) {
    1778:	0e91                	addi	t4,t4,4
                            cur=C[i*N+j];
    177a:	80f2                	mv	ra,t3
    177c:	000eae03          	lw	t3,0(t4)
                                    ret+=10;
    1780:	030d9a93          	slli	s5,s11,0x30
    1784:	030ad993          	srli	s3,s5,0x30
                            tmp+=cur;
    1788:	00ee073b          	addw	a4,t3,a4
                            if (tmp>clipval) {
    178c:	14e5d863          	bge	a1,a4,18dc <matrix_test+0x6ec>
                                    ret+=10;
    1790:	00a98b1b          	addiw	s6,s3,10
    1794:	030b1713          	slli	a4,s6,0x30
    1798:	010b1d9b          	slliw	s11,s6,0x10
    179c:	03075293          	srli	t0,a4,0x30
    17a0:	410ddd9b          	sraiw	s11,s11,0x10
                                    tmp=0;
    17a4:	4701                	li	a4,0
                    for (j=0; j<N; j++) {
    17a6:	0e91                	addi	t4,t4,4
    17a8:	090e9d63          	bne	t4,a6,1842 <matrix_test+0x652>
            for (i=0; i<N; i++) {
    17ac:	00188f93          	addi	t6,a7,1
    17b0:	006e8833          	add	a6,t4,t1
    17b4:	171a0363          	beq	s4,a7,191a <matrix_test+0x72a>
    17b8:	88fe                	mv	a7,t6
    17ba:	b7b1                	j	1706 <matrix_test+0x516>
                                        ret += (cur>prev) ? 1 : 0;
    17bc:	005e2e33          	slt	t3,t3,t0
                            cur=C[i*N+j];
    17c0:	004eaa83          	lw	s5,4(t4)
                                        ret += (cur>prev) ? 1 : 0;
    17c4:	00fe063b          	addw	a2,t3,a5
    17c8:	01061f9b          	slliw	t6,a2,0x10
    17cc:	410fd39b          	sraiw	t2,t6,0x10
                                    ret+=10;
    17d0:	03039993          	slli	s3,t2,0x30
                            tmp+=cur;
    17d4:	001a8f3b          	addw	t5,s5,ra
                    for (j=0; j<N; j++) {
    17d8:	0e91                	addi	t4,t4,4
                                    ret+=10;
    17da:	0309d913          	srli	s2,s3,0x30
                            if (tmp>clipval) {
    17de:	09e5de63          	bge	a1,t5,187a <matrix_test+0x68a>
                            cur=C[i*N+j];
    17e2:	004ea783          	lw	a5,4(t4)
                                    ret+=10;
    17e6:	00a90d9b          	addiw	s11,s2,10
    17ea:	010d929b          	slliw	t0,s11,0x10
    17ee:	4102d71b          	sraiw	a4,t0,0x10
                                    tmp=0;
    17f2:	4f01                	li	t5,0
                                    ret+=10;
    17f4:	03071693          	slli	a3,a4,0x30
                            tmp+=cur;
    17f8:	01e7863b          	addw	a2,a5,t5
                                    ret+=10;
    17fc:	0306de13          	srli	t3,a3,0x30
                            if (tmp>clipval) {
    1800:	08c5df63          	bge	a1,a2,189e <matrix_test+0x6ae>
                                    ret+=10;
    1804:	00ae009b          	addiw	ra,t3,10
                            cur=C[i*N+j];
    1808:	008eae03          	lw	t3,8(t4)
                                    ret+=10;
    180c:	01009a9b          	slliw	s5,ra,0x10
    1810:	410ad39b          	sraiw	t2,s5,0x10
                                    tmp=0;
    1814:	4601                	li	a2,0
                                    ret+=10;
    1816:	03039993          	slli	s3,t2,0x30
                            tmp+=cur;
    181a:	00ce073b          	addw	a4,t3,a2
                                    ret+=10;
    181e:	0309d913          	srli	s2,s3,0x30
                            if (tmp>clipval) {
    1822:	0ae5d063          	bge	a1,a4,18c2 <matrix_test+0x6d2>
                                    ret+=10;
    1826:	00a9079b          	addiw	a5,s2,10
    182a:	03079693          	slli	a3,a5,0x30
    182e:	0107961b          	slliw	a2,a5,0x10
    1832:	0306d293          	srli	t0,a3,0x30
    1836:	41065d9b          	sraiw	s11,a2,0x10
                                    tmp=0;
    183a:	4701                	li	a4,0
                    for (j=0; j<N; j++) {
    183c:	0eb1                	addi	t4,t4,12
    183e:	f70e87e3          	beq	t4,a6,17ac <matrix_test+0x5bc>
                            cur=C[i*N+j];
    1842:	000ea283          	lw	t0,0(t4)
                                    ret+=10;
    1846:	030d9693          	slli	a3,s11,0x30
    184a:	0306d793          	srli	a5,a3,0x30
                            tmp+=cur;
    184e:	00e280bb          	addw	ra,t0,a4
                            if (tmp>clipval) {
    1852:	f615d5e3          	bge	a1,ra,17bc <matrix_test+0x5cc>
                            cur=C[i*N+j];
    1856:	004eaa83          	lw	s5,4(t4)
                                    ret+=10;
    185a:	00a78d1b          	addiw	s10,a5,10
    185e:	010d1c9b          	slliw	s9,s10,0x10
    1862:	410cd39b          	sraiw	t2,s9,0x10
                                    tmp=0;
    1866:	4081                	li	ra,0
                                    ret+=10;
    1868:	03039993          	slli	s3,t2,0x30
                            tmp+=cur;
    186c:	001a8f3b          	addw	t5,s5,ra
                    for (j=0; j<N; j++) {
    1870:	0e91                	addi	t4,t4,4
                                    ret+=10;
    1872:	0309d913          	srli	s2,s3,0x30
                            if (tmp>clipval) {
    1876:	f7e5c6e3          	blt	a1,t5,17e2 <matrix_test+0x5f2>
                                        ret += (cur>prev) ? 1 : 0;
    187a:	0152a433          	slt	s0,t0,s5
                            cur=C[i*N+j];
    187e:	004ea783          	lw	a5,4(t4)
                                        ret += (cur>prev) ? 1 : 0;
    1882:	01240bbb          	addw	s7,s0,s2
    1886:	010b9b1b          	slliw	s6,s7,0x10
    188a:	410b571b          	sraiw	a4,s6,0x10
                                    ret+=10;
    188e:	03071693          	slli	a3,a4,0x30
                            tmp+=cur;
    1892:	01e7863b          	addw	a2,a5,t5
                                    ret+=10;
    1896:	0306de13          	srli	t3,a3,0x30
                            if (tmp>clipval) {
    189a:	f6c5c5e3          	blt	a1,a2,1804 <matrix_test+0x614>
                                        ret += (cur>prev) ? 1 : 0;
    189e:	00faafb3          	slt	t6,s5,a5
    18a2:	01cf8d3b          	addw	s10,t6,t3
                            cur=C[i*N+j];
    18a6:	008eae03          	lw	t3,8(t4)
                                        ret += (cur>prev) ? 1 : 0;
    18aa:	010d1c9b          	slliw	s9,s10,0x10
    18ae:	410cd39b          	sraiw	t2,s9,0x10
                                    ret+=10;
    18b2:	03039993          	slli	s3,t2,0x30
                            tmp+=cur;
    18b6:	00ce073b          	addw	a4,t3,a2
                                    ret+=10;
    18ba:	0309d913          	srli	s2,s3,0x30
                            if (tmp>clipval) {
    18be:	f6e5c4e3          	blt	a1,a4,1826 <matrix_test+0x636>
                                        ret += (cur>prev) ? 1 : 0;
    18c2:	01c7af33          	slt	t5,a5,t3
    18c6:	012f043b          	addw	s0,t5,s2
    18ca:	03041b93          	slli	s7,s0,0x30
    18ce:	01041b1b          	slliw	s6,s0,0x10
    18d2:	030bd293          	srli	t0,s7,0x30
    18d6:	410b5d9b          	sraiw	s11,s6,0x10
    18da:	b78d                	j	183c <matrix_test+0x64c>
    18dc:	01c0a933          	slt	s2,ra,t3
    18e0:	01390f3b          	addw	t5,s2,s3
    18e4:	030f1413          	slli	s0,t5,0x30
    18e8:	010f1b9b          	slliw	s7,t5,0x10
    18ec:	03045293          	srli	t0,s0,0x30
    18f0:	410bdd9b          	sraiw	s11,s7,0x10
    18f4:	bd4d                	j	17a6 <matrix_test+0x5b6>
    18f6:	01c6a633          	slt	a2,a3,t3
    18fa:	00560fbb          	addw	t6,a2,t0
    18fe:	010f9d1b          	slliw	s10,t6,0x10
    1902:	410d5d9b          	sraiw	s11,s10,0x10
    1906:	bd8d                	j	1778 <matrix_test+0x588>
    1908:	01c9a433          	slt	s0,s3,t3
    190c:	01e40bbb          	addw	s7,s0,t5
    1910:	010b9b1b          	slliw	s6,s7,0x10
    1914:	410b5d9b          	sraiw	s11,s6,0x10
    1918:	bd2d                	j	1752 <matrix_test+0x562>
                         crc &= 0x7fff;
              }
        return crc;
}
ee_u16 crcu16(ee_u16 newval, ee_u16 crc) {
        crc=crcu8( (ee_u8) (newval)               ,crc);
    191a:	0ffdf893          	andi	a7,s11,255
                    crc >>= 1;
    191e:	0018fd13          	andi	s10,a7,1
    1922:	63a9                	lui	t2,0xa
    1924:	41a00cb3          	neg	s9,s10
    1928:	00138093          	addi	ra,t2,1 # a001 <_end+0x17b1>
    192c:	0190fab3          	and	s5,ra,s9
                    data >>= 1;
    1930:	0018de13          	srli	t3,a7,0x1
                    x16 = (ee_u8)((data & 1) ^ ((ee_u8)crc & 1));
    1934:	015e49b3          	xor	s3,t3,s5
                    if (x16 == 1)
    1938:	0019f913          	andi	s2,s3,1
        crc=crcu8( (ee_u8) ((newval)>>8)    ,crc);
    193c:	0082d713          	srli	a4,t0,0x8
                    data >>= 1;
    1940:	0028d693          	srli	a3,a7,0x2
                    crc >>= 1;
    1944:	001ad293          	srli	t0,s5,0x1
                    if (x16 == 1)
    1948:	00090b63          	beqz	s2,195e <matrix_test+0x76e>
                         crc |= 0x8000;
    194c:	7f69                	lui	t5,0xffffa
    194e:	001f0413          	addi	s0,t5,1 # ffffffffffffa001 <tohost+0xffffffff8fa7a001>
    1952:	0082cbb3          	xor	s7,t0,s0
    1956:	030b9293          	slli	t0,s7,0x30
    195a:	0302d293          	srli	t0,t0,0x30
                    x16 = (ee_u8)((data & 1) ^ ((ee_u8)crc & 1));
    195e:	0056cb33          	xor	s6,a3,t0
                    if (x16 == 1)
    1962:	001b7d93          	andi	s11,s6,1
                    data >>= 1;
    1966:	0016d613          	srli	a2,a3,0x1
                    crc >>= 1;
    196a:	0012d593          	srli	a1,t0,0x1
                    if (x16 == 1)
    196e:	000d8b63          	beqz	s11,1984 <matrix_test+0x794>
                         crc |= 0x8000;
    1972:	77e9                	lui	a5,0xffffa
    1974:	00178e93          	addi	t4,a5,1 # ffffffffffffa001 <tohost+0xffffffff8fa7a001>
    1978:	01d5c333          	xor	t1,a1,t4
    197c:	03031513          	slli	a0,t1,0x30
    1980:	03055593          	srli	a1,a0,0x30
                    x16 = (ee_u8)((data & 1) ^ ((ee_u8)crc & 1));
    1984:	00c5ca33          	xor	s4,a1,a2
                    if (x16 == 1)
    1988:	001a7f93          	andi	t6,s4,1
                    data >>= 1;
    198c:	0026d813          	srli	a6,a3,0x2
                    crc >>= 1;
    1990:	0015d093          	srli	ra,a1,0x1
                    if (x16 == 1)
    1994:	000f8b63          	beqz	t6,19aa <matrix_test+0x7ba>
                         crc |= 0x8000;
    1998:	78e9                	lui	a7,0xffffa
    199a:	00188d13          	addi	s10,a7,1 # ffffffffffffa001 <tohost+0xffffffff8fa7a001>
    199e:	01a0ccb3          	xor	s9,ra,s10
    19a2:	030c9393          	slli	t2,s9,0x30
    19a6:	0303d093          	srli	ra,t2,0x30
                    x16 = (ee_u8)((data & 1) ^ ((ee_u8)crc & 1));
    19aa:	0100cab3          	xor	s5,ra,a6
                    if (x16 == 1)
    19ae:	001afe13          	andi	t3,s5,1
                    data >>= 1;
    19b2:	0036d993          	srli	s3,a3,0x3
                    crc >>= 1;
    19b6:	0010d293          	srli	t0,ra,0x1
                    if (x16 == 1)
    19ba:	000e0b63          	beqz	t3,19d0 <matrix_test+0x7e0>
                         crc |= 0x8000;
    19be:	7969                	lui	s2,0xffffa
    19c0:	00190f13          	addi	t5,s2,1 # ffffffffffffa001 <tohost+0xffffffff8fa7a001>
    19c4:	01e2c433          	xor	s0,t0,t5
    19c8:	03041b93          	slli	s7,s0,0x30
    19cc:	030bd293          	srli	t0,s7,0x30
                    x16 = (ee_u8)((data & 1) ^ ((ee_u8)crc & 1));
    19d0:	0132cb33          	xor	s6,t0,s3
                    if (x16 == 1)
    19d4:	001b7d93          	andi	s11,s6,1
                    data >>= 1;
    19d8:	0046d793          	srli	a5,a3,0x4
                    crc >>= 1;
    19dc:	0012d593          	srli	a1,t0,0x1
                    if (x16 == 1)
    19e0:	000d8b63          	beqz	s11,19f6 <matrix_test+0x806>
                         crc |= 0x8000;
    19e4:	7669                	lui	a2,0xffffa
    19e6:	00160e93          	addi	t4,a2,1 # ffffffffffffa001 <tohost+0xffffffff8fa7a001>
    19ea:	01d5c333          	xor	t1,a1,t4
    19ee:	03031513          	slli	a0,t1,0x30
    19f2:	03055593          	srli	a1,a0,0x30
                    x16 = (ee_u8)((data & 1) ^ ((ee_u8)crc & 1));
    19f6:	00f5ca33          	xor	s4,a1,a5
                    if (x16 == 1)
    19fa:	001a7f93          	andi	t6,s4,1
                    data >>= 1;
    19fe:	8295                	srli	a3,a3,0x5
                    crc >>= 1;
    1a00:	0015d393          	srli	t2,a1,0x1
                    if (x16 == 1)
    1a04:	000f8b63          	beqz	t6,1a1a <matrix_test+0x82a>
                         crc |= 0x8000;
    1a08:	7869                	lui	a6,0xffffa
    1a0a:	00180893          	addi	a7,a6,1 # ffffffffffffa001 <tohost+0xffffffff8fa7a001>
    1a0e:	0113cd33          	xor	s10,t2,a7
    1a12:	030d1c93          	slli	s9,s10,0x30
    1a16:	030cd393          	srli	t2,s9,0x30
                    if (x16 == 1)
    1a1a:	0013f093          	andi	ra,t2,1
                    crc >>= 1;
    1a1e:	0013df13          	srli	t5,t2,0x1
                    if (x16 == 1)
    1a22:	00d08b63          	beq	ra,a3,1a38 <matrix_test+0x848>
                         crc |= 0x8000;
    1a26:	7ae9                	lui	s5,0xffffa
    1a28:	001a8e13          	addi	t3,s5,1 # ffffffffffffa001 <tohost+0xffffffff8fa7a001>
    1a2c:	01cf49b3          	xor	s3,t5,t3
    1a30:	03099913          	slli	s2,s3,0x30
    1a34:	03095f13          	srli	t5,s2,0x30
                    x16 = (ee_u8)((data & 1) ^ ((ee_u8)crc & 1));
    1a38:	01e74433          	xor	s0,a4,t5
                    if (x16 == 1)
    1a3c:	00147b93          	andi	s7,s0,1
                    data >>= 1;
    1a40:	00175293          	srli	t0,a4,0x1
                    if (x16 == 1)
    1a44:	001f5e93          	srli	t4,t5,0x1
    1a48:	000b8b63          	beqz	s7,1a5e <matrix_test+0x86e>
                         crc |= 0x8000;
    1a4c:	7b69                	lui	s6,0xffffa
    1a4e:	001b0d93          	addi	s11,s6,1 # ffffffffffffa001 <tohost+0xffffffff8fa7a001>
    1a52:	01bec7b3          	xor	a5,t4,s11
    1a56:	03079613          	slli	a2,a5,0x30
    1a5a:	03065e93          	srli	t4,a2,0x30
                    x16 = (ee_u8)((data & 1) ^ ((ee_u8)crc & 1));
    1a5e:	01d2c333          	xor	t1,t0,t4
                    if (x16 == 1)
    1a62:	00137513          	andi	a0,t1,1
                    data >>= 1;
    1a66:	00275593          	srli	a1,a4,0x2
                    if (x16 == 1)
    1a6a:	001ed893          	srli	a7,t4,0x1
    1a6e:	c911                	beqz	a0,1a82 <matrix_test+0x892>
                         crc |= 0x8000;
    1a70:	7a69                	lui	s4,0xffffa
    1a72:	001a0f93          	addi	t6,s4,1 # ffffffffffffa001 <tohost+0xffffffff8fa7a001>
    1a76:	01f8c6b3          	xor	a3,a7,t6
    1a7a:	03069813          	slli	a6,a3,0x30
    1a7e:	03085893          	srli	a7,a6,0x30
                    x16 = (ee_u8)((data & 1) ^ ((ee_u8)crc & 1));
    1a82:	0115cd33          	xor	s10,a1,a7
                    if (x16 == 1)
    1a86:	001d7393          	andi	t2,s10,1
                    data >>= 1;
    1a8a:	00375093          	srli	ra,a4,0x3
                    if (x16 == 1)
    1a8e:	0018d913          	srli	s2,a7,0x1
    1a92:	00038b63          	beqz	t2,1aa8 <matrix_test+0x8b8>
                         crc |= 0x8000;
    1a96:	7ae9                	lui	s5,0xffffa
    1a98:	001a8e13          	addi	t3,s5,1 # ffffffffffffa001 <tohost+0xffffffff8fa7a001>
    1a9c:	01c94cb3          	xor	s9,s2,t3
    1aa0:	030c9993          	slli	s3,s9,0x30
    1aa4:	0309d913          	srli	s2,s3,0x30
                    x16 = (ee_u8)((data & 1) ^ ((ee_u8)crc & 1));
    1aa8:	00194f33          	xor	t5,s2,ra
                    if (x16 == 1)
    1aac:	001f7413          	andi	s0,t5,1
                    data >>= 1;
    1ab0:	00475b93          	srli	s7,a4,0x4
                    if (x16 == 1)
    1ab4:	00195613          	srli	a2,s2,0x1
    1ab8:	c811                	beqz	s0,1acc <matrix_test+0x8dc>
                         crc |= 0x8000;
    1aba:	72e9                	lui	t0,0xffffa
    1abc:	00128b13          	addi	s6,t0,1 # ffffffffffffa001 <tohost+0xffffffff8fa7a001>
    1ac0:	01664db3          	xor	s11,a2,s6
    1ac4:	030d9793          	slli	a5,s11,0x30
    1ac8:	0307d613          	srli	a2,a5,0x30
                    x16 = (ee_u8)((data & 1) ^ ((ee_u8)crc & 1));
    1acc:	01764eb3          	xor	t4,a2,s7
                    if (x16 == 1)
    1ad0:	001ef313          	andi	t1,t4,1
                    data >>= 1;
    1ad4:	00575513          	srli	a0,a4,0x5
                    if (x16 == 1)
    1ad8:	00165813          	srli	a6,a2,0x1
    1adc:	00030b63          	beqz	t1,1af2 <matrix_test+0x902>
                         crc |= 0x8000;
    1ae0:	75e9                	lui	a1,0xffffa
    1ae2:	00158a13          	addi	s4,a1,1 # ffffffffffffa001 <tohost+0xffffffff8fa7a001>
    1ae6:	01484fb3          	xor	t6,a6,s4
    1aea:	030f9693          	slli	a3,t6,0x30
    1aee:	0306d813          	srli	a6,a3,0x30
                    x16 = (ee_u8)((data & 1) ^ ((ee_u8)crc & 1));
    1af2:	010548b3          	xor	a7,a0,a6
                    if (x16 == 1)
    1af6:	0018fd13          	andi	s10,a7,1
                    data >>= 1;
    1afa:	00675393          	srli	t2,a4,0x6
                    if (x16 == 1)
    1afe:	00185993          	srli	s3,a6,0x1
    1b02:	000d0b63          	beqz	s10,1b18 <matrix_test+0x928>
                         crc |= 0x8000;
    1b06:	70e9                	lui	ra,0xffffa
    1b08:	00108a93          	addi	s5,ra,1 # ffffffffffffa001 <tohost+0xffffffff8fa7a001>
    1b0c:	0159ce33          	xor	t3,s3,s5
    1b10:	030e1c93          	slli	s9,t3,0x30
    1b14:	030cd993          	srli	s3,s9,0x30
                    x16 = (ee_u8)((data & 1) ^ ((ee_u8)crc & 1));
    1b18:	0133c933          	xor	s2,t2,s3
                    if (x16 == 1)
    1b1c:	00197f13          	andi	t5,s2,1
                    data >>= 1;
    1b20:	831d                	srli	a4,a4,0x7
                    if (x16 == 1)
    1b22:	0019dd93          	srli	s11,s3,0x1
    1b26:	000f0b63          	beqz	t5,1b3c <matrix_test+0x94c>
                         crc |= 0x8000;
    1b2a:	7469                	lui	s0,0xffffa
    1b2c:	00140b93          	addi	s7,s0,1 # ffffffffffffa001 <tohost+0xffffffff8fa7a001>
    1b30:	017dc2b3          	xor	t0,s11,s7
    1b34:	03029b13          	slli	s6,t0,0x30
    1b38:	030b5d93          	srli	s11,s6,0x30
                    if (x16 == 1)
    1b3c:	001df793          	andi	a5,s11,1
    1b40:	001dda13          	srli	s4,s11,0x1
    1b44:	00e78b63          	beq	a5,a4,1b5a <matrix_test+0x96a>
                         crc |= 0x8000;
    1b48:	7669                	lui	a2,0xffffa
    1b4a:	00160e93          	addi	t4,a2,1 # ffffffffffffa001 <tohost+0xffffffff8fa7a001>
    1b4e:	01da4333          	xor	t1,s4,t4
    1b52:	03031513          	slli	a0,t1,0x30
    1b56:	03055a13          	srli	s4,a0,0x30
            for (i=0; i<N; i++) {
    1b5a:	e099                	bnez	s1,1b60 <matrix_test+0x970>
    1b5c:	66e0106f          	j	31ca <matrix_test+0x1fda>
                    C[i]=0;
    1b60:	6d22                	ld	s10,8(sp)
    1b62:	00249b93          	slli	s7,s1,0x2
    1b66:	865e                	mv	a2,s7
    1b68:	4581                	li	a1,0
    1b6a:	856a                	mv	a0,s10
    1b6c:	7a5050ef          	jal	ra,7b10 <memset>
    1b70:	62c2                	ld	t0,16(sp)
    1b72:	7de2                	ld	s11,56(sp)
    1b74:	00149693          	slli	a3,s1,0x1
    1b78:	8fea                	mv	t6,s10
    1b7a:	01ab8533          	add	a0,s7,s10
    1b7e:	005683b3          	add	t2,a3,t0
    1b82:	4401                	li	s0,0
    1b84:	e052                	sd	s4,0(sp)
                    for (j=0; j<N; j++) {
    1b86:	405388b3          	sub	a7,t2,t0
    1b8a:	ffe88093          	addi	ra,a7,-2
    1b8e:	0010da93          	srli	s5,ra,0x1
    1b92:	001a8e13          	addi	t3,s5,1
    1b96:	00141c93          	slli	s9,s0,0x1
    1b9a:	007e7993          	andi	s3,t3,7
    1b9e:	019d87b3          	add	a5,s11,s9
                    C[i]=0;
    1ba2:	8716                	mv	a4,t0
    1ba4:	4681                	li	a3,0
    1ba6:	0a098a63          	beqz	s3,1c5a <matrix_test+0xa6a>
    1baa:	4905                	li	s2,1
    1bac:	09298b63          	beq	s3,s2,1c42 <matrix_test+0xa52>
    1bb0:	4f09                	li	t5,2
    1bb2:	07e98e63          	beq	s3,t5,1c2e <matrix_test+0xa3e>
    1bb6:	4b0d                	li	s6,3
    1bb8:	07698263          	beq	s3,s6,1c1c <matrix_test+0xa2c>
    1bbc:	4611                	li	a2,4
    1bbe:	04c98563          	beq	s3,a2,1c08 <matrix_test+0xa18>
    1bc2:	4e95                	li	t4,5
    1bc4:	03d98863          	beq	s3,t4,1bf4 <matrix_test+0xa04>
    1bc8:	4319                	li	t1,6
    1bca:	00698b63          	beq	s3,t1,1be0 <matrix_test+0x9f0>
                            C[i]+=(MATRES)A[i*N+j] * (MATRES)B[j];
    1bce:	00079a03          	lh	s4,0(a5)
    1bd2:	00029583          	lh	a1,0(t0)
                    for (j=0; j<N; j++) {
    1bd6:	0789                	addi	a5,a5,2
    1bd8:	00228713          	addi	a4,t0,2
                            C[i]+=(MATRES)A[i*N+j] * (MATRES)B[j];
    1bdc:	02ba06bb          	mulw	a3,s4,a1
    1be0:	00079d03          	lh	s10,0(a5)
    1be4:	00071803          	lh	a6,0(a4)
                    for (j=0; j<N; j++) {
    1be8:	0789                	addi	a5,a5,2
    1bea:	0709                	addi	a4,a4,2
                            C[i]+=(MATRES)A[i*N+j] * (MATRES)B[j];
    1bec:	030d08bb          	mulw	a7,s10,a6
    1bf0:	00d886bb          	addw	a3,a7,a3
    1bf4:	00079083          	lh	ra,0(a5)
    1bf8:	00071a83          	lh	s5,0(a4)
                    for (j=0; j<N; j++) {
    1bfc:	0789                	addi	a5,a5,2
    1bfe:	0709                	addi	a4,a4,2
                            C[i]+=(MATRES)A[i*N+j] * (MATRES)B[j];
    1c00:	03508e3b          	mulw	t3,ra,s5
    1c04:	00de06bb          	addw	a3,t3,a3
    1c08:	00079c83          	lh	s9,0(a5)
    1c0c:	00071983          	lh	s3,0(a4)
                    for (j=0; j<N; j++) {
    1c10:	0789                	addi	a5,a5,2
    1c12:	0709                	addi	a4,a4,2
                            C[i]+=(MATRES)A[i*N+j] * (MATRES)B[j];
    1c14:	033c893b          	mulw	s2,s9,s3
    1c18:	00d906bb          	addw	a3,s2,a3
    1c1c:	00079f03          	lh	t5,0(a5)
    1c20:	00071b03          	lh	s6,0(a4)
                    for (j=0; j<N; j++) {
    1c24:	0789                	addi	a5,a5,2
    1c26:	0709                	addi	a4,a4,2
                            C[i]+=(MATRES)A[i*N+j] * (MATRES)B[j];
    1c28:	036f063b          	mulw	a2,t5,s6
    1c2c:	9eb1                	addw	a3,a3,a2
    1c2e:	00079e83          	lh	t4,0(a5)
    1c32:	00071303          	lh	t1,0(a4)
                    for (j=0; j<N; j++) {
    1c36:	0789                	addi	a5,a5,2
    1c38:	0709                	addi	a4,a4,2
                            C[i]+=(MATRES)A[i*N+j] * (MATRES)B[j];
    1c3a:	026e8a3b          	mulw	s4,t4,t1
    1c3e:	00da06bb          	addw	a3,s4,a3
    1c42:	00079d03          	lh	s10,0(a5)
    1c46:	00071583          	lh	a1,0(a4)
                    for (j=0; j<N; j++) {
    1c4a:	0709                	addi	a4,a4,2
    1c4c:	0789                	addi	a5,a5,2
                            C[i]+=(MATRES)A[i*N+j] * (MATRES)B[j];
    1c4e:	02bd083b          	mulw	a6,s10,a1
    1c52:	00d806bb          	addw	a3,a6,a3
                    for (j=0; j<N; j++) {
    1c56:	08770663          	beq	a4,t2,1ce2 <matrix_test+0xaf2>
                            C[i]+=(MATRES)A[i*N+j] * (MATRES)B[j];
    1c5a:	00071a83          	lh	s5,0(a4)
    1c5e:	00079083          	lh	ra,0(a5)
    1c62:	00279d03          	lh	s10,2(a5)
    1c66:	00271f03          	lh	t5,2(a4)
    1c6a:	035080bb          	mulw	ra,ra,s5
    1c6e:	00479303          	lh	t1,4(a5)
    1c72:	00471c83          	lh	s9,4(a4)
    1c76:	00679883          	lh	a7,6(a5)
    1c7a:	00671b03          	lh	s6,6(a4)
    1c7e:	00879803          	lh	a6,8(a5)
    1c82:	00871a03          	lh	s4,8(a4)
    1c86:	00a79583          	lh	a1,10(a5)
    1c8a:	00a71983          	lh	s3,10(a4)
    1c8e:	00c79603          	lh	a2,12(a5)
    1c92:	03ed0abb          	mulw	s5,s10,t5
    1c96:	00c71903          	lh	s2,12(a4)
    1c9a:	00e79e03          	lh	t3,14(a5)
    1c9e:	00e71e83          	lh	t4,14(a4)
    1ca2:	00d086bb          	addw	a3,ra,a3
                    for (j=0; j<N; j++) {
    1ca6:	0741                	addi	a4,a4,16
    1ca8:	07c1                	addi	a5,a5,16
                            C[i]+=(MATRES)A[i*N+j] * (MATRES)B[j];
    1caa:	03930d3b          	mulw	s10,t1,s9
    1cae:	00da8f3b          	addw	t5,s5,a3
    1cb2:	0368833b          	mulw	t1,a7,s6
    1cb6:	01ed0cbb          	addw	s9,s10,t5
    1cba:	034808bb          	mulw	a7,a6,s4
    1cbe:	01930b3b          	addw	s6,t1,s9
    1cc2:	033580bb          	mulw	ra,a1,s3
    1cc6:	0168883b          	addw	a6,a7,s6
    1cca:	03260a3b          	mulw	s4,a2,s2
    1cce:	010089bb          	addw	s3,ra,a6
    1cd2:	03de05bb          	mulw	a1,t3,t4
    1cd6:	013a063b          	addw	a2,s4,s3
    1cda:	00c586bb          	addw	a3,a1,a2
                    for (j=0; j<N; j++) {
    1cde:	f6771ee3          	bne	a4,t2,1c5a <matrix_test+0xa6a>
    1ce2:	00dfa023          	sw	a3,0(t6) # ffffffffffff8000 <tohost+0xffffffff8fa78000>
            for (i=0; i<N; i++) {
    1ce6:	0f91                	addi	t6,t6,4
    1ce8:	9426                	add	s0,s0,s1
    1cea:	e9f51ee3          	bne	a0,t6,1b86 <matrix_test+0x996>
    1cee:	6a02                	ld	s4,0(sp)
                            if (tmp>clipval) {
    1cf0:	4586                	lw	a1,64(sp)
    1cf2:	409002b3          	neg	t0,s1
    1cf6:	00229893          	slli	a7,t0,0x2
    1cfa:	4401                	li	s0,0
    1cfc:	4e01                	li	t3,0
    1cfe:	4701                	li	a4,0
    1d00:	4801                	li	a6,0
                    for (j=0; j<N; j++) {
    1d02:	411003b3          	neg	t2,a7
    1d06:	ffc38d93          	addi	s11,t2,-4
    1d0a:	002dd913          	srli	s2,s11,0x2
    1d0e:	00190e93          	addi	t4,s2,1
    1d12:	003efa93          	andi	s5,t4,3
    1d16:	00a88333          	add	t1,a7,a0
    1d1a:	520a8863          	beqz	s5,224a <matrix_test+0x105a>
    1d1e:	4685                	li	a3,1
    1d20:	04da8a63          	beq	s5,a3,1d74 <matrix_test+0xb84>
    1d24:	4d09                	li	s10,2
    1d26:	03aa8563          	beq	s5,s10,1d50 <matrix_test+0xb60>
                            cur=C[i*N+j];
    1d2a:	8f72                	mv	t5,t3
    1d2c:	00032e03          	lw	t3,0(t1)
                                    ret+=10;
    1d30:	03041793          	slli	a5,s0,0x30
    1d34:	0307dc93          	srli	s9,a5,0x30
                            tmp+=cur;
    1d38:	00ee073b          	addw	a4,t3,a4
                            if (tmp>clipval) {
    1d3c:	5ee5d263          	bge	a1,a4,2320 <matrix_test+0x1130>
                                    ret+=10;
    1d40:	00ac871b          	addiw	a4,s9,10
    1d44:	0107161b          	slliw	a2,a4,0x10
    1d48:	4106541b          	sraiw	s0,a2,0x10
                                    tmp=0;
    1d4c:	4701                	li	a4,0
                    for (j=0; j<N; j++) {
    1d4e:	0311                	addi	t1,t1,4
                            cur=C[i*N+j];
    1d50:	8ff2                	mv	t6,t3
    1d52:	00032e03          	lw	t3,0(t1)
                                    ret+=10;
    1d56:	1442                	slli	s0,s0,0x30
    1d58:	03045293          	srli	t0,s0,0x30
                            tmp+=cur;
    1d5c:	00ee073b          	addw	a4,t3,a4
                            if (tmp>clipval) {
    1d60:	5ae5d763          	bge	a1,a4,230e <matrix_test+0x111e>
                                    ret+=10;
    1d64:	00a28e9b          	addiw	t4,t0,10
    1d68:	010e9a9b          	slliw	s5,t4,0x10
    1d6c:	410ad41b          	sraiw	s0,s5,0x10
                                    tmp=0;
    1d70:	4701                	li	a4,0
                    for (j=0; j<N; j++) {
    1d72:	0311                	addi	t1,t1,4
                            cur=C[i*N+j];
    1d74:	86f2                	mv	a3,t3
    1d76:	00032e03          	lw	t3,0(t1)
                                    ret+=10;
    1d7a:	03041d13          	slli	s10,s0,0x30
    1d7e:	030d5f13          	srli	t5,s10,0x30
                            tmp+=cur;
    1d82:	00ee073b          	addw	a4,t3,a4
                            if (tmp>clipval) {
    1d86:	56e5d763          	bge	a1,a4,22f4 <matrix_test+0x1104>
                                    ret+=10;
    1d8a:	00af099b          	addiw	s3,t5,10
    1d8e:	03099713          	slli	a4,s3,0x30
    1d92:	01099f9b          	slliw	t6,s3,0x10
    1d96:	03075613          	srli	a2,a4,0x30
    1d9a:	410fd41b          	sraiw	s0,t6,0x10
                                    tmp=0;
    1d9e:	4701                	li	a4,0
                    for (j=0; j<N; j++) {
    1da0:	0311                	addi	t1,t1,4
    1da2:	4aa31463          	bne	t1,a0,224a <matrix_test+0x105a>
            for (i=0; i<N; i++) {
    1da6:	0805                	addi	a6,a6,1
    1da8:	01730533          	add	a0,t1,s7
    1dac:	f5049be3          	bne	s1,a6,1d02 <matrix_test+0xb12>
        crc=crcu8( (ee_u8) (newval)               ,crc);
    1db0:	0ff47f93          	andi	t6,s0,255
        crc=crcu8( (ee_u8) ((newval)>>8)    ,crc);
    1db4:	00865593          	srli	a1,a2,0x8
                    x16 = (ee_u8)((data & 1) ^ ((ee_u8)crc & 1));
    1db8:	01fa4db3          	xor	s11,s4,t6
                    if (x16 == 1)
    1dbc:	001df913          	andi	s2,s11,1
                    data >>= 1;
    1dc0:	001fde93          	srli	t4,t6,0x1
                    if (x16 == 1)
    1dc4:	001a5e13          	srli	t3,s4,0x1
    1dc8:	00090b63          	beqz	s2,1dde <matrix_test+0xbee>
                         crc |= 0x8000;
    1dcc:	7a69                	lui	s4,0xffffa
    1dce:	001a0a93          	addi	s5,s4,1 # ffffffffffffa001 <tohost+0xffffffff8fa7a001>
    1dd2:	015e4d33          	xor	s10,t3,s5
    1dd6:	030d1693          	slli	a3,s10,0x30
    1dda:	0306de13          	srli	t3,a3,0x30
                    x16 = (ee_u8)((data & 1) ^ ((ee_u8)crc & 1));
    1dde:	01de4f33          	xor	t5,t3,t4
                    if (x16 == 1)
    1de2:	001f7c93          	andi	s9,t5,1
                    data >>= 1;
    1de6:	002fd713          	srli	a4,t6,0x2
                    if (x16 == 1)
    1dea:	001e5993          	srli	s3,t3,0x1
    1dee:	000c8b63          	beqz	s9,1e04 <matrix_test+0xc14>
                         crc |= 0x8000;
    1df2:	7b69                	lui	s6,0xffffa
    1df4:	001b0093          	addi	ra,s6,1 # ffffffffffffa001 <tohost+0xffffffff8fa7a001>
    1df8:	0019c7b3          	xor	a5,s3,ra
    1dfc:	03079613          	slli	a2,a5,0x30
    1e00:	03065993          	srli	s3,a2,0x30
                    x16 = (ee_u8)((data & 1) ^ ((ee_u8)crc & 1));
    1e04:	01374433          	xor	s0,a4,s3
                    if (x16 == 1)
    1e08:	00147293          	andi	t0,s0,1
                    data >>= 1;
    1e0c:	003fd393          	srli	t2,t6,0x3
                    if (x16 == 1)
    1e10:	0019d513          	srli	a0,s3,0x1
    1e14:	00028b63          	beqz	t0,1e2a <matrix_test+0xc3a>
                         crc |= 0x8000;
    1e18:	7369                	lui	t1,0xffffa
    1e1a:	00130893          	addi	a7,t1,1 # ffffffffffffa001 <tohost+0xffffffff8fa7a001>
    1e1e:	01154bb3          	xor	s7,a0,a7
    1e22:	030b9813          	slli	a6,s7,0x30
    1e26:	03085513          	srli	a0,a6,0x30
                    x16 = (ee_u8)((data & 1) ^ ((ee_u8)crc & 1));
    1e2a:	00754db3          	xor	s11,a0,t2
                    if (x16 == 1)
    1e2e:	001df913          	andi	s2,s11,1
                    data >>= 1;
    1e32:	004fde93          	srli	t4,t6,0x4
                    if (x16 == 1)
    1e36:	00155e13          	srli	t3,a0,0x1
    1e3a:	00090b63          	beqz	s2,1e50 <matrix_test+0xc60>
                         crc |= 0x8000;
    1e3e:	7a69                	lui	s4,0xffffa
    1e40:	001a0a93          	addi	s5,s4,1 # ffffffffffffa001 <tohost+0xffffffff8fa7a001>
    1e44:	015e4d33          	xor	s10,t3,s5
    1e48:	030d1693          	slli	a3,s10,0x30
    1e4c:	0306de13          	srli	t3,a3,0x30
                    x16 = (ee_u8)((data & 1) ^ ((ee_u8)crc & 1));
    1e50:	01de4f33          	xor	t5,t3,t4
                    if (x16 == 1)
    1e54:	001f7c93          	andi	s9,t5,1
                    data >>= 1;
    1e58:	005fd713          	srli	a4,t6,0x5
                    if (x16 == 1)
    1e5c:	001e5993          	srli	s3,t3,0x1
    1e60:	000c8b63          	beqz	s9,1e76 <matrix_test+0xc86>
                         crc |= 0x8000;
    1e64:	7b69                	lui	s6,0xffffa
    1e66:	001b0093          	addi	ra,s6,1 # ffffffffffffa001 <tohost+0xffffffff8fa7a001>
    1e6a:	0019c7b3          	xor	a5,s3,ra
    1e6e:	03079613          	slli	a2,a5,0x30
    1e72:	03065993          	srli	s3,a2,0x30
                    x16 = (ee_u8)((data & 1) ^ ((ee_u8)crc & 1));
    1e76:	01374433          	xor	s0,a4,s3
                    if (x16 == 1)
    1e7a:	00147293          	andi	t0,s0,1
                    data >>= 1;
    1e7e:	006fd393          	srli	t2,t6,0x6
                    if (x16 == 1)
    1e82:	0019d513          	srli	a0,s3,0x1
    1e86:	00028b63          	beqz	t0,1e9c <matrix_test+0xcac>
                         crc |= 0x8000;
    1e8a:	7369                	lui	t1,0xffffa
    1e8c:	00130893          	addi	a7,t1,1 # ffffffffffffa001 <tohost+0xffffffff8fa7a001>
    1e90:	01154bb3          	xor	s7,a0,a7
    1e94:	030b9813          	slli	a6,s7,0x30
    1e98:	03085513          	srli	a0,a6,0x30
                    x16 = (ee_u8)((data & 1) ^ ((ee_u8)crc & 1));
    1e9c:	00a3cdb3          	xor	s11,t2,a0
                    if (x16 == 1)
    1ea0:	001df913          	andi	s2,s11,1
                    data >>= 1;
    1ea4:	007fdf93          	srli	t6,t6,0x7
                    if (x16 == 1)
    1ea8:	00155693          	srli	a3,a0,0x1
    1eac:	00090b63          	beqz	s2,1ec2 <matrix_test+0xcd2>
                         crc |= 0x8000;
    1eb0:	7ee9                	lui	t4,0xffffa
    1eb2:	001e8a13          	addi	s4,t4,1 # ffffffffffffa001 <tohost+0xffffffff8fa7a001>
    1eb6:	0146cab3          	xor	s5,a3,s4
    1eba:	030a9d13          	slli	s10,s5,0x30
    1ebe:	030d5693          	srli	a3,s10,0x30
                    if (x16 == 1)
    1ec2:	0016fe13          	andi	t3,a3,1
    1ec6:	0016d093          	srli	ra,a3,0x1
    1eca:	01fe0b63          	beq	t3,t6,1ee0 <matrix_test+0xcf0>
                         crc |= 0x8000;
    1ece:	7f69                	lui	t5,0xffffa
    1ed0:	001f0c93          	addi	s9,t5,1 # ffffffffffffa001 <tohost+0xffffffff8fa7a001>
    1ed4:	0190c733          	xor	a4,ra,s9
    1ed8:	03071b13          	slli	s6,a4,0x30
    1edc:	030b5093          	srli	ra,s6,0x30
                    x16 = (ee_u8)((data & 1) ^ ((ee_u8)crc & 1));
    1ee0:	0015c7b3          	xor	a5,a1,ra
                    if (x16 == 1)
    1ee4:	0017f993          	andi	s3,a5,1
                    data >>= 1;
    1ee8:	0015d613          	srli	a2,a1,0x1
                    if (x16 == 1)
    1eec:	0010d893          	srli	a7,ra,0x1
    1ef0:	00098b63          	beqz	s3,1f06 <matrix_test+0xd16>
                         crc |= 0x8000;
    1ef4:	7469                	lui	s0,0xffffa
    1ef6:	00140293          	addi	t0,s0,1 # ffffffffffffa001 <tohost+0xffffffff8fa7a001>
    1efa:	0058c3b3          	xor	t2,a7,t0
    1efe:	03039313          	slli	t1,t2,0x30
    1f02:	03035893          	srli	a7,t1,0x30
                    x16 = (ee_u8)((data & 1) ^ ((ee_u8)crc & 1));
    1f06:	01164bb3          	xor	s7,a2,a7
                    if (x16 == 1)
    1f0a:	001bf813          	andi	a6,s7,1
                    data >>= 1;
    1f0e:	0025d513          	srli	a0,a1,0x2
                    if (x16 == 1)
    1f12:	0018da13          	srli	s4,a7,0x1
    1f16:	00080b63          	beqz	a6,1f2c <matrix_test+0xd3c>
                         crc |= 0x8000;
    1f1a:	7de9                	lui	s11,0xffffa
    1f1c:	001d8913          	addi	s2,s11,1 # ffffffffffffa001 <tohost+0xffffffff8fa7a001>
    1f20:	012a4fb3          	xor	t6,s4,s2
    1f24:	030f9e93          	slli	t4,t6,0x30
    1f28:	030eda13          	srli	s4,t4,0x30
                    x16 = (ee_u8)((data & 1) ^ ((ee_u8)crc & 1));
    1f2c:	00aa4ab3          	xor	s5,s4,a0
                    if (x16 == 1)
    1f30:	001afd13          	andi	s10,s5,1
                    data >>= 1;
    1f34:	0035de13          	srli	t3,a1,0x3
                    if (x16 == 1)
    1f38:	001a5b13          	srli	s6,s4,0x1
    1f3c:	000d0b63          	beqz	s10,1f52 <matrix_test+0xd62>
                         crc |= 0x8000;
    1f40:	76e9                	lui	a3,0xffffa
    1f42:	00168f13          	addi	t5,a3,1 # ffffffffffffa001 <tohost+0xffffffff8fa7a001>
    1f46:	01eb4cb3          	xor	s9,s6,t5
    1f4a:	030c9713          	slli	a4,s9,0x30
    1f4e:	03075b13          	srli	s6,a4,0x30
                    x16 = (ee_u8)((data & 1) ^ ((ee_u8)crc & 1));
    1f52:	016e40b3          	xor	ra,t3,s6
                    if (x16 == 1)
    1f56:	0010f993          	andi	s3,ra,1
                    data >>= 1;
    1f5a:	0045d413          	srli	s0,a1,0x4
                    if (x16 == 1)
    1f5e:	001b5313          	srli	t1,s6,0x1
    1f62:	00098b63          	beqz	s3,1f78 <matrix_test+0xd88>
                         crc |= 0x8000;
    1f66:	7669                	lui	a2,0xffffa
    1f68:	00160293          	addi	t0,a2,1 # ffffffffffffa001 <tohost+0xffffffff8fa7a001>
    1f6c:	005347b3          	xor	a5,t1,t0
    1f70:	03079393          	slli	t2,a5,0x30
    1f74:	0303d313          	srli	t1,t2,0x30
                    x16 = (ee_u8)((data & 1) ^ ((ee_u8)crc & 1));
    1f78:	006448b3          	xor	a7,s0,t1
                    if (x16 == 1)
    1f7c:	0018fb93          	andi	s7,a7,1
                    data >>= 1;
    1f80:	0055d813          	srli	a6,a1,0x5
                    if (x16 == 1)
    1f84:	00135e93          	srli	t4,t1,0x1
    1f88:	000b8b63          	beqz	s7,1f9e <matrix_test+0xdae>
                         crc |= 0x8000;
    1f8c:	7569                	lui	a0,0xffffa
    1f8e:	00150d93          	addi	s11,a0,1 # ffffffffffffa001 <tohost+0xffffffff8fa7a001>
    1f92:	01bec933          	xor	s2,t4,s11
    1f96:	03091f93          	slli	t6,s2,0x30
    1f9a:	030fde93          	srli	t4,t6,0x30
                    x16 = (ee_u8)((data & 1) ^ ((ee_u8)crc & 1));
    1f9e:	01d84a33          	xor	s4,a6,t4
                    if (x16 == 1)
    1fa2:	001a7a93          	andi	s5,s4,1
                    data >>= 1;
    1fa6:	0065dd13          	srli	s10,a1,0x6
                    if (x16 == 1)
    1faa:	001edb13          	srli	s6,t4,0x1
    1fae:	000a8b63          	beqz	s5,1fc4 <matrix_test+0xdd4>
                         crc |= 0x8000;
    1fb2:	7e69                	lui	t3,0xffffa
    1fb4:	001e0693          	addi	a3,t3,1 # ffffffffffffa001 <tohost+0xffffffff8fa7a001>
    1fb8:	00db4f33          	xor	t5,s6,a3
    1fbc:	030f1c93          	slli	s9,t5,0x30
    1fc0:	030cdb13          	srli	s6,s9,0x30
                    x16 = (ee_u8)((data & 1) ^ ((ee_u8)crc & 1));
    1fc4:	016d4733          	xor	a4,s10,s6
                    if (x16 == 1)
    1fc8:	00177093          	andi	ra,a4,1
                    data >>= 1;
    1fcc:	819d                	srli	a1,a1,0x7
                    if (x16 == 1)
    1fce:	001b5793          	srli	a5,s6,0x1
    1fd2:	00008b63          	beqz	ra,1fe8 <matrix_test+0xdf8>
                         crc |= 0x8000;
    1fd6:	79e9                	lui	s3,0xffffa
    1fd8:	00198413          	addi	s0,s3,1 # ffffffffffffa001 <tohost+0xffffffff8fa7a001>
    1fdc:	0087c633          	xor	a2,a5,s0
    1fe0:	03061293          	slli	t0,a2,0x30
    1fe4:	0302d793          	srli	a5,t0,0x30
                    if (x16 == 1)
    1fe8:	0017d313          	srli	t1,a5,0x1
    1fec:	0017f393          	andi	t2,a5,1
    1ff0:	e01a                	sd	t1,0(sp)
    1ff2:	00b38c63          	beq	t2,a1,200a <matrix_test+0xe1a>
                         crc |= 0x8000;
    1ff6:	78e9                	lui	a7,0xffffa
    1ff8:	00188b93          	addi	s7,a7,1 # ffffffffffffa001 <tohost+0xffffffff8fa7a001>
    1ffc:	01734833          	xor	a6,t1,s7
    2000:	03081513          	slli	a0,a6,0x30
    2004:	03055d93          	srli	s11,a0,0x30
    2008:	e06e                	sd	s11,0(sp)
            for (i=0; i<N; i++) {
    200a:	4f81                	li	t6,0
    200c:	4801                	li	a6,0
    200e:	32048663          	beqz	s1,233a <matrix_test+0x114a>
    2012:	7962                	ld	s2,56(sp)
    2014:	00149413          	slli	s0,s1,0x1
                            C[i*N+j]=0;
    2018:	00249a13          	slli	s4,s1,0x2
    201c:	89ca                	mv	s3,s2
    201e:	ec52                	sd	s4,24(sp)
    2020:	9922                	add	s2,s2,s0
    2022:	4b81                	li	s7,0
            for (i=0; i<N; i++) {
    2024:	4c81                	li	s9,0
    2026:	f062                	sd	s8,32(sp)
                    for (j=0; j<N; j++) {
    2028:	6fa2                	ld	t6,8(sp)
    202a:	002b9c13          	slli	s8,s7,0x2
                            C[i*N+j]=0;
    202e:	8652                	mv	a2,s4
    2030:	01fc0533          	add	a0,s8,t6
    2034:	4581                	li	a1,0
    2036:	2db050ef          	jal	ra,7b10 <memset>
    203a:	6ec2                	ld	t4,16(sp)
    203c:	8f2a                	mv	t5,a0
                    for (j=0; j<N; j++) {
    203e:	4281                	li	t0,0
                            for(k=0;k<N;k++)
    2040:	41390ab3          	sub	s5,s2,s3
    2044:	ffea8d13          	addi	s10,s5,-2
    2048:	001d5e13          	srli	t3,s10,0x1
    204c:	001e0693          	addi	a3,t3,1
    2050:	0076fb13          	andi	s6,a3,7
    2054:	8776                	mv	a4,t4
    2056:	87ce                	mv	a5,s3
    2058:	4681                	li	a3,0
    205a:	0a0b0963          	beqz	s6,210c <matrix_test+0xf1c>
    205e:	4085                	li	ra,1
    2060:	081b0b63          	beq	s6,ra,20f6 <matrix_test+0xf06>
    2064:	4589                	li	a1,2
    2066:	06bb0e63          	beq	s6,a1,20e2 <matrix_test+0xef2>
    206a:	460d                	li	a2,3
    206c:	06cb0163          	beq	s6,a2,20ce <matrix_test+0xede>
    2070:	4391                	li	t2,4
    2072:	047b0563          	beq	s6,t2,20bc <matrix_test+0xecc>
    2076:	4315                	li	t1,5
    2078:	026b0863          	beq	s6,t1,20a8 <matrix_test+0xeb8>
    207c:	4899                	li	a7,6
    207e:	011b0c63          	beq	s6,a7,2096 <matrix_test+0xea6>
                                        C[i*N+j]+=(MATRES)A[i*N+k] * (MATRES)B[k*N+j];
    2082:	00099803          	lh	a6,0(s3)
    2086:	000e9d83          	lh	s11,0(t4)
                            for(k=0;k<N;k++)
    208a:	00298793          	addi	a5,s3,2
    208e:	008e8733          	add	a4,t4,s0
                                        C[i*N+j]+=(MATRES)A[i*N+k] * (MATRES)B[k*N+j];
    2092:	03b806bb          	mulw	a3,a6,s11
    2096:	00079c03          	lh	s8,0(a5)
    209a:	00071f83          	lh	t6,0(a4)
                            for(k=0;k<N;k++)
    209e:	0789                	addi	a5,a5,2
    20a0:	9722                	add	a4,a4,s0
                                        C[i*N+j]+=(MATRES)A[i*N+k] * (MATRES)B[k*N+j];
    20a2:	03fc053b          	mulw	a0,s8,t6
    20a6:	9ea9                	addw	a3,a3,a0
    20a8:	00079a83          	lh	s5,0(a5)
    20ac:	00071d03          	lh	s10,0(a4)
                            for(k=0;k<N;k++)
    20b0:	0789                	addi	a5,a5,2
    20b2:	9722                	add	a4,a4,s0
                                        C[i*N+j]+=(MATRES)A[i*N+k] * (MATRES)B[k*N+j];
    20b4:	03aa8e3b          	mulw	t3,s5,s10
    20b8:	00de06bb          	addw	a3,t3,a3
    20bc:	00079b03          	lh	s6,0(a5)
    20c0:	00071083          	lh	ra,0(a4)
                            for(k=0;k<N;k++)
    20c4:	0789                	addi	a5,a5,2
    20c6:	9722                	add	a4,a4,s0
                                        C[i*N+j]+=(MATRES)A[i*N+k] * (MATRES)B[k*N+j];
    20c8:	021b05bb          	mulw	a1,s6,ra
    20cc:	9ead                	addw	a3,a3,a1
    20ce:	00079603          	lh	a2,0(a5)
    20d2:	00071383          	lh	t2,0(a4)
                            for(k=0;k<N;k++)
    20d6:	0789                	addi	a5,a5,2
    20d8:	9722                	add	a4,a4,s0
                                        C[i*N+j]+=(MATRES)A[i*N+k] * (MATRES)B[k*N+j];
    20da:	0276033b          	mulw	t1,a2,t2
    20de:	00d306bb          	addw	a3,t1,a3
    20e2:	00079883          	lh	a7,0(a5)
    20e6:	00071803          	lh	a6,0(a4)
                            for(k=0;k<N;k++)
    20ea:	0789                	addi	a5,a5,2
    20ec:	9722                	add	a4,a4,s0
                                        C[i*N+j]+=(MATRES)A[i*N+k] * (MATRES)B[k*N+j];
    20ee:	03088dbb          	mulw	s11,a7,a6
    20f2:	00dd86bb          	addw	a3,s11,a3
    20f6:	00079c03          	lh	s8,0(a5)
    20fa:	00071f83          	lh	t6,0(a4)
                            for(k=0;k<N;k++)
    20fe:	0789                	addi	a5,a5,2
    2100:	9722                	add	a4,a4,s0
                                        C[i*N+j]+=(MATRES)A[i*N+k] * (MATRES)B[k*N+j];
    2102:	03fc053b          	mulw	a0,s8,t6
    2106:	9ea9                	addw	a3,a3,a0
                            for(k=0;k<N;k++)
    2108:	0af90463          	beq	s2,a5,21b0 <matrix_test+0xfc0>
    210c:	00870ab3          	add	s5,a4,s0
                                        C[i*N+j]+=(MATRES)A[i*N+k] * (MATRES)B[k*N+j];
    2110:	00079083          	lh	ra,0(a5)
    2114:	00071583          	lh	a1,0(a4)
    2118:	000a9e03          	lh	t3,0(s5)
                            for(k=0;k<N;k++)
    211c:	008a8d33          	add	s10,s5,s0
                                        C[i*N+j]+=(MATRES)A[i*N+k] * (MATRES)B[k*N+j];
    2120:	00279b03          	lh	s6,2(a5)
                            for(k=0;k<N;k++)
    2124:	008d03b3          	add	t2,s10,s0
                                        C[i*N+j]+=(MATRES)A[i*N+k] * (MATRES)B[k*N+j];
    2128:	00479883          	lh	a7,4(a5)
    212c:	000d1d03          	lh	s10,0(s10)
    2130:	02b08dbb          	mulw	s11,ra,a1
                            for(k=0;k<N;k++)
    2134:	00838633          	add	a2,t2,s0
                                        C[i*N+j]+=(MATRES)A[i*N+k] * (MATRES)B[k*N+j];
    2138:	00039c03          	lh	s8,0(t2)
    213c:	00679803          	lh	a6,6(a5)
                            for(k=0;k<N;k++)
    2140:	00860fb3          	add	t6,a2,s0
                                        C[i*N+j]+=(MATRES)A[i*N+k] * (MATRES)B[k*N+j];
    2144:	00879503          	lh	a0,8(a5)
    2148:	00061a83          	lh	s5,0(a2)
                            for(k=0;k<N;k++)
    214c:	008f8333          	add	t1,t6,s0
                                        C[i*N+j]+=(MATRES)A[i*N+k] * (MATRES)B[k*N+j];
    2150:	00a79083          	lh	ra,10(a5)
    2154:	000f9583          	lh	a1,0(t6)
    2158:	03cb0b3b          	mulw	s6,s6,t3
    215c:	00c79383          	lh	t2,12(a5)
                            for(k=0;k<N;k++)
    2160:	00830733          	add	a4,t1,s0
                                        C[i*N+j]+=(MATRES)A[i*N+k] * (MATRES)B[k*N+j];
    2164:	00031603          	lh	a2,0(t1)
    2168:	00e79f83          	lh	t6,14(a5)
    216c:	00071e03          	lh	t3,0(a4)
    2170:	00dd86bb          	addw	a3,s11,a3
                            for(k=0;k<N;k++)
    2174:	07c1                	addi	a5,a5,16
    2176:	9722                	add	a4,a4,s0
                                        C[i*N+j]+=(MATRES)A[i*N+k] * (MATRES)B[k*N+j];
    2178:	03a888bb          	mulw	a7,a7,s10
    217c:	00db0d3b          	addw	s10,s6,a3
    2180:	0388083b          	mulw	a6,a6,s8
    2184:	01a88dbb          	addw	s11,a7,s10
    2188:	03550c3b          	mulw	s8,a0,s5
    218c:	01b8053b          	addw	a0,a6,s11
    2190:	02b08abb          	mulw	s5,ra,a1
    2194:	00ac00bb          	addw	ra,s8,a0
    2198:	02c385bb          	mulw	a1,t2,a2
    219c:	001a83bb          	addw	t2,s5,ra
    21a0:	03cf833b          	mulw	t1,t6,t3
    21a4:	00758b3b          	addw	s6,a1,t2
    21a8:	016306bb          	addw	a3,t1,s6
                            for(k=0;k<N;k++)
    21ac:	f6f910e3          	bne	s2,a5,210c <matrix_test+0xf1c>
    21b0:	00df2023          	sw	a3,0(t5)
                    for (j=0; j<N; j++) {
    21b4:	00128793          	addi	a5,t0,1
    21b8:	0f11                	addi	t5,t5,4
    21ba:	0e89                	addi	t4,t4,2
    21bc:	12f48363          	beq	s1,a5,22e2 <matrix_test+0x10f2>
    21c0:	82be                	mv	t0,a5
    21c2:	bdbd                	j	2040 <matrix_test+0xe50>
                                        ret += (cur>prev) ? 1 : 0;
    21c4:	00ce2e33          	slt	t3,t3,a2
                            cur=C[i*N+j];
    21c8:	00432683          	lw	a3,4(t1)
                                        ret += (cur>prev) ? 1 : 0;
    21cc:	005e03bb          	addw	t2,t3,t0
    21d0:	01039d9b          	slliw	s11,t2,0x10
    21d4:	410dda9b          	sraiw	s5,s11,0x10
                                    ret+=10;
    21d8:	030a9f13          	slli	t5,s5,0x30
                            tmp+=cur;
    21dc:	01a68cbb          	addw	s9,a3,s10
                    for (j=0; j<N; j++) {
    21e0:	0311                	addi	t1,t1,4
                                    ret+=10;
    21e2:	030f5793          	srli	a5,t5,0x30
                            if (tmp>clipval) {
    21e6:	0995dd63          	bge	a1,s9,2280 <matrix_test+0x1090>
                            cur=C[i*N+j];
    21ea:	00432403          	lw	s0,4(t1)
                                    ret+=10;
    21ee:	00a78f9b          	addiw	t6,a5,10
    21f2:	010f961b          	slliw	a2,t6,0x10
    21f6:	4106571b          	sraiw	a4,a2,0x10
                                    tmp=0;
    21fa:	4c81                	li	s9,0
                                    ret+=10;
    21fc:	03071293          	slli	t0,a4,0x30
                            tmp+=cur;
    2200:	019403bb          	addw	t2,s0,s9
                                    ret+=10;
    2204:	0302de13          	srli	t3,t0,0x30
                            if (tmp>clipval) {
    2208:	0875de63          	bge	a1,t2,22a4 <matrix_test+0x10b4>
                                    ret+=10;
    220c:	00ae0d1b          	addiw	s10,t3,10
                            cur=C[i*N+j];
    2210:	00832e03          	lw	t3,8(t1)
                                    ret+=10;
    2214:	010d169b          	slliw	a3,s10,0x10
    2218:	4106da9b          	sraiw	s5,a3,0x10
                                    tmp=0;
    221c:	4381                	li	t2,0
                                    ret+=10;
    221e:	030a9f13          	slli	t5,s5,0x30
                            tmp+=cur;
    2222:	007e073b          	addw	a4,t3,t2
                                    ret+=10;
    2226:	030f5c93          	srli	s9,t5,0x30
                            if (tmp>clipval) {
    222a:	08e5df63          	bge	a1,a4,22c8 <matrix_test+0x10d8>
                                    ret+=10;
    222e:	00ac8f9b          	addiw	t6,s9,10
    2232:	030f9293          	slli	t0,t6,0x30
    2236:	010f939b          	slliw	t2,t6,0x10
    223a:	0302d613          	srli	a2,t0,0x30
    223e:	4103d41b          	sraiw	s0,t2,0x10
                                    tmp=0;
    2242:	4701                	li	a4,0
                    for (j=0; j<N; j++) {
    2244:	0331                	addi	t1,t1,12
    2246:	b6a300e3          	beq	t1,a0,1da6 <matrix_test+0xbb6>
                            cur=C[i*N+j];
    224a:	00032603          	lw	a2,0(t1)
                                    ret+=10;
    224e:	1442                	slli	s0,s0,0x30
    2250:	03045293          	srli	t0,s0,0x30
                            tmp+=cur;
    2254:	00e60d3b          	addw	s10,a2,a4
                            if (tmp>clipval) {
    2258:	f7a5d6e3          	bge	a1,s10,21c4 <matrix_test+0xfd4>
                            cur=C[i*N+j];
    225c:	00432683          	lw	a3,4(t1)
                                    ret+=10;
    2260:	00a2891b          	addiw	s2,t0,10
    2264:	01091e9b          	slliw	t4,s2,0x10
    2268:	410eda9b          	sraiw	s5,t4,0x10
                                    tmp=0;
    226c:	4d01                	li	s10,0
                                    ret+=10;
    226e:	030a9f13          	slli	t5,s5,0x30
                            tmp+=cur;
    2272:	01a68cbb          	addw	s9,a3,s10
                    for (j=0; j<N; j++) {
    2276:	0311                	addi	t1,t1,4
                                    ret+=10;
    2278:	030f5793          	srli	a5,t5,0x30
                            if (tmp>clipval) {
    227c:	f795c7e3          	blt	a1,s9,21ea <matrix_test+0xffa>
                                        ret += (cur>prev) ? 1 : 0;
    2280:	00d62b33          	slt	s6,a2,a3
                            cur=C[i*N+j];
    2284:	00432403          	lw	s0,4(t1)
                                        ret += (cur>prev) ? 1 : 0;
    2288:	00fb00bb          	addw	ra,s6,a5
    228c:	0100999b          	slliw	s3,ra,0x10
    2290:	4109d71b          	sraiw	a4,s3,0x10
                                    ret+=10;
    2294:	03071293          	slli	t0,a4,0x30
                            tmp+=cur;
    2298:	019403bb          	addw	t2,s0,s9
                                    ret+=10;
    229c:	0302de13          	srli	t3,t0,0x30
                            if (tmp>clipval) {
    22a0:	f675c6e3          	blt	a1,t2,220c <matrix_test+0x101c>
                                        ret += (cur>prev) ? 1 : 0;
    22a4:	0086adb3          	slt	s11,a3,s0
    22a8:	01cd893b          	addw	s2,s11,t3
                            cur=C[i*N+j];
    22ac:	00832e03          	lw	t3,8(t1)
                                        ret += (cur>prev) ? 1 : 0;
    22b0:	01091e9b          	slliw	t4,s2,0x10
    22b4:	410eda9b          	sraiw	s5,t4,0x10
                                    ret+=10;
    22b8:	030a9f13          	slli	t5,s5,0x30
                            tmp+=cur;
    22bc:	007e073b          	addw	a4,t3,t2
                                    ret+=10;
    22c0:	030f5c93          	srli	s9,t5,0x30
                            if (tmp>clipval) {
    22c4:	f6e5c5e3          	blt	a1,a4,222e <matrix_test+0x103e>
                                        ret += (cur>prev) ? 1 : 0;
    22c8:	01c427b3          	slt	a5,s0,t3
    22cc:	01978b3b          	addw	s6,a5,s9
    22d0:	030b1093          	slli	ra,s6,0x30
    22d4:	010b199b          	slliw	s3,s6,0x10
    22d8:	0300d613          	srli	a2,ra,0x30
    22dc:	4109d41b          	sraiw	s0,s3,0x10
    22e0:	b795                	j	2244 <matrix_test+0x1054>
            for (i=0; i<N; i++) {
    22e2:	001c8f13          	addi	t5,s9,1
    22e6:	99a2                	add	s3,s3,s0
    22e8:	9ba6                	add	s7,s7,s1
    22ea:	9922                	add	s2,s2,s0
    22ec:	49928ee3          	beq	t0,s9,2f88 <matrix_test+0x1d98>
    22f0:	8cfa                	mv	s9,t5
    22f2:	bb1d                	j	2028 <matrix_test+0xe38>
                                        ret += (cur>prev) ? 1 : 0;
    22f4:	01c6a7b3          	slt	a5,a3,t3
    22f8:	01e78cbb          	addw	s9,a5,t5
    22fc:	030c9b13          	slli	s6,s9,0x30
    2300:	010c909b          	slliw	ra,s9,0x10
    2304:	030b5613          	srli	a2,s6,0x30
    2308:	4100d41b          	sraiw	s0,ra,0x10
    230c:	bc51                	j	1da0 <matrix_test+0xbb0>
    230e:	01cfa3b3          	slt	t2,t6,t3
    2312:	00538dbb          	addw	s11,t2,t0
    2316:	010d991b          	slliw	s2,s11,0x10
    231a:	4109541b          	sraiw	s0,s2,0x10
    231e:	bc91                	j	1d72 <matrix_test+0xb82>
    2320:	01cf2b33          	slt	s6,t5,t3
    2324:	019b00bb          	addw	ra,s6,s9
    2328:	0100999b          	slliw	s3,ra,0x10
    232c:	4109d41b          	sraiw	s0,s3,0x10
    2330:	bc39                	j	1d4e <matrix_test+0xb5e>
        crc=crcu8( (ee_u8) (newval)               ,crc);
    2332:	0ff9f813          	andi	a6,s3,255
        crc=crcu8( (ee_u8) ((newval)>>8)    ,crc);
    2336:	008bdf93          	srli	t6,s7,0x8
                    x16 = (ee_u8)((data & 1) ^ ((ee_u8)crc & 1));
    233a:	6d02                	ld	s10,0(sp)
                    data >>= 1;
    233c:	00185a93          	srli	s5,a6,0x1
                    x16 = (ee_u8)((data & 1) ^ ((ee_u8)crc & 1));
    2340:	010d46b3          	xor	a3,s10,a6
                    if (x16 == 1)
    2344:	0016fd93          	andi	s11,a3,1
    2348:	001d5b13          	srli	s6,s10,0x1
    234c:	000d8b63          	beqz	s11,2362 <matrix_test+0x1172>
                         crc |= 0x8000;
    2350:	7e69                	lui	t3,0xffffa
    2352:	001e0093          	addi	ra,t3,1 # ffffffffffffa001 <tohost+0xffffffff8fa7a001>
    2356:	001b43b3          	xor	t2,s6,ra
    235a:	03039713          	slli	a4,t2,0x30
    235e:	03075b13          	srli	s6,a4,0x30
                    x16 = (ee_u8)((data & 1) ^ ((ee_u8)crc & 1));
    2362:	015b47b3          	xor	a5,s6,s5
                    if (x16 == 1)
    2366:	0017f313          	andi	t1,a5,1
                    data >>= 1;
    236a:	00285b93          	srli	s7,a6,0x2
                    if (x16 == 1)
    236e:	001b5293          	srli	t0,s6,0x1
    2372:	00030b63          	beqz	t1,2388 <matrix_test+0x1198>
                         crc |= 0x8000;
    2376:	7f69                	lui	t5,0xffffa
    2378:	001f0993          	addi	s3,t5,1 # ffffffffffffa001 <tohost+0xffffffff8fa7a001>
    237c:	0132c933          	xor	s2,t0,s3
    2380:	03091e93          	slli	t4,s2,0x30
    2384:	030ed293          	srli	t0,t4,0x30
                    x16 = (ee_u8)((data & 1) ^ ((ee_u8)crc & 1));
    2388:	0172c5b3          	xor	a1,t0,s7
                    if (x16 == 1)
    238c:	0015f893          	andi	a7,a1,1
                    data >>= 1;
    2390:	00385613          	srli	a2,a6,0x3
                    if (x16 == 1)
    2394:	0012dd13          	srli	s10,t0,0x1
    2398:	00088b63          	beqz	a7,23ae <matrix_test+0x11be>
                         crc |= 0x8000;
    239c:	7569                	lui	a0,0xffffa
    239e:	00150c93          	addi	s9,a0,1 # ffffffffffffa001 <tohost+0xffffffff8fa7a001>
    23a2:	019d4433          	xor	s0,s10,s9
    23a6:	03041a13          	slli	s4,s0,0x30
    23aa:	030a5d13          	srli	s10,s4,0x30
                    x16 = (ee_u8)((data & 1) ^ ((ee_u8)crc & 1));
    23ae:	00cd46b3          	xor	a3,s10,a2
                    if (x16 == 1)
    23b2:	0016fd93          	andi	s11,a3,1
                    data >>= 1;
    23b6:	00485a93          	srli	s5,a6,0x4
                    if (x16 == 1)
    23ba:	001d5b13          	srli	s6,s10,0x1
    23be:	000d8b63          	beqz	s11,23d4 <matrix_test+0x11e4>
                         crc |= 0x8000;
    23c2:	7e69                	lui	t3,0xffffa
    23c4:	001e0093          	addi	ra,t3,1 # ffffffffffffa001 <tohost+0xffffffff8fa7a001>
    23c8:	001b43b3          	xor	t2,s6,ra
    23cc:	03039713          	slli	a4,t2,0x30
    23d0:	03075b13          	srli	s6,a4,0x30
                    x16 = (ee_u8)((data & 1) ^ ((ee_u8)crc & 1));
    23d4:	015b47b3          	xor	a5,s6,s5
                    if (x16 == 1)
    23d8:	0017f313          	andi	t1,a5,1
                    data >>= 1;
    23dc:	00585b93          	srli	s7,a6,0x5
                    if (x16 == 1)
    23e0:	001b5293          	srli	t0,s6,0x1
    23e4:	00030b63          	beqz	t1,23fa <matrix_test+0x120a>
                         crc |= 0x8000;
    23e8:	7f69                	lui	t5,0xffffa
    23ea:	001f0993          	addi	s3,t5,1 # ffffffffffffa001 <tohost+0xffffffff8fa7a001>
    23ee:	0132c933          	xor	s2,t0,s3
    23f2:	03091e93          	slli	t4,s2,0x30
    23f6:	030ed293          	srli	t0,t4,0x30
                    x16 = (ee_u8)((data & 1) ^ ((ee_u8)crc & 1));
    23fa:	0172c5b3          	xor	a1,t0,s7
                    if (x16 == 1)
    23fe:	0015f893          	andi	a7,a1,1
                    data >>= 1;
    2402:	00685513          	srli	a0,a6,0x6
                    if (x16 == 1)
    2406:	0012dd13          	srli	s10,t0,0x1
    240a:	00088b63          	beqz	a7,2420 <matrix_test+0x1230>
                         crc |= 0x8000;
    240e:	7669                	lui	a2,0xffffa
    2410:	00160c93          	addi	s9,a2,1 # ffffffffffffa001 <tohost+0xffffffff8fa7a001>
    2414:	019d4433          	xor	s0,s10,s9
    2418:	03041a13          	slli	s4,s0,0x30
    241c:	030a5d13          	srli	s10,s4,0x30
                    x16 = (ee_u8)((data & 1) ^ ((ee_u8)crc & 1));
    2420:	00ad46b3          	xor	a3,s10,a0
                    if (x16 == 1)
    2424:	0016fd93          	andi	s11,a3,1
                    data >>= 1;
    2428:	00785813          	srli	a6,a6,0x7
                    if (x16 == 1)
    242c:	001d5713          	srli	a4,s10,0x1
    2430:	000d8b63          	beqz	s11,2446 <matrix_test+0x1256>
                         crc |= 0x8000;
    2434:	7ae9                	lui	s5,0xffffa
    2436:	001a8e13          	addi	t3,s5,1 # ffffffffffffa001 <tohost+0xffffffff8fa7a001>
    243a:	01c740b3          	xor	ra,a4,t3
    243e:	03009393          	slli	t2,ra,0x30
    2442:	0303d713          	srli	a4,t2,0x30
                    if (x16 == 1)
    2446:	00177b13          	andi	s6,a4,1
    244a:	00175993          	srli	s3,a4,0x1
    244e:	010b0b63          	beq	s6,a6,2464 <matrix_test+0x1274>
                         crc |= 0x8000;
    2452:	77e9                	lui	a5,0xffffa
    2454:	00178313          	addi	t1,a5,1 # ffffffffffffa001 <tohost+0xffffffff8fa7a001>
    2458:	0069cbb3          	xor	s7,s3,t1
    245c:	030b9f13          	slli	t5,s7,0x30
    2460:	030f5993          	srli	s3,t5,0x30
                    x16 = (ee_u8)((data & 1) ^ ((ee_u8)crc & 1));
    2464:	013fc933          	xor	s2,t6,s3
                    if (x16 == 1)
    2468:	00197e93          	andi	t4,s2,1
                    data >>= 1;
    246c:	001fd293          	srli	t0,t6,0x1
                    if (x16 == 1)
    2470:	0019dc93          	srli	s9,s3,0x1
    2474:	000e8b63          	beqz	t4,248a <matrix_test+0x129a>
                         crc |= 0x8000;
    2478:	75e9                	lui	a1,0xffffa
    247a:	00158893          	addi	a7,a1,1 # ffffffffffffa001 <tohost+0xffffffff8fa7a001>
    247e:	011cc533          	xor	a0,s9,a7
    2482:	03051613          	slli	a2,a0,0x30
    2486:	03065c93          	srli	s9,a2,0x30
                    x16 = (ee_u8)((data & 1) ^ ((ee_u8)crc & 1));
    248a:	005cc433          	xor	s0,s9,t0
                    if (x16 == 1)
    248e:	00147a13          	andi	s4,s0,1
                    data >>= 1;
    2492:	002fdd13          	srli	s10,t6,0x2
                    if (x16 == 1)
    2496:	001cde13          	srli	t3,s9,0x1
    249a:	000a0b63          	beqz	s4,24b0 <matrix_test+0x12c0>
                         crc |= 0x8000;
    249e:	76e9                	lui	a3,0xffffa
    24a0:	00168d93          	addi	s11,a3,1 # ffffffffffffa001 <tohost+0xffffffff8fa7a001>
    24a4:	01be4833          	xor	a6,t3,s11
    24a8:	03081a93          	slli	s5,a6,0x30
    24ac:	030ade13          	srli	t3,s5,0x30
                    x16 = (ee_u8)((data & 1) ^ ((ee_u8)crc & 1));
    24b0:	01ae40b3          	xor	ra,t3,s10
                    if (x16 == 1)
    24b4:	0010f393          	andi	t2,ra,1
                    data >>= 1;
    24b8:	003fdb13          	srli	s6,t6,0x3
                    if (x16 == 1)
    24bc:	001e5f13          	srli	t5,t3,0x1
    24c0:	00038b63          	beqz	t2,24d6 <matrix_test+0x12e6>
                         crc |= 0x8000;
    24c4:	7769                	lui	a4,0xffffa
    24c6:	00170793          	addi	a5,a4,1 # ffffffffffffa001 <tohost+0xffffffff8fa7a001>
    24ca:	00ff4333          	xor	t1,t5,a5
    24ce:	03031b93          	slli	s7,t1,0x30
    24d2:	030bdf13          	srli	t5,s7,0x30
                    x16 = (ee_u8)((data & 1) ^ ((ee_u8)crc & 1));
    24d6:	01eb49b3          	xor	s3,s6,t5
                    if (x16 == 1)
    24da:	0019f913          	andi	s2,s3,1
                    data >>= 1;
    24de:	004fde93          	srli	t4,t6,0x4
                    if (x16 == 1)
    24e2:	001f5613          	srli	a2,t5,0x1
    24e6:	00090b63          	beqz	s2,24fc <matrix_test+0x130c>
                         crc |= 0x8000;
    24ea:	72e9                	lui	t0,0xffffa
    24ec:	00128593          	addi	a1,t0,1 # ffffffffffffa001 <tohost+0xffffffff8fa7a001>
    24f0:	00b648b3          	xor	a7,a2,a1
    24f4:	03089513          	slli	a0,a7,0x30
    24f8:	03055613          	srli	a2,a0,0x30
                    x16 = (ee_u8)((data & 1) ^ ((ee_u8)crc & 1));
    24fc:	00ceccb3          	xor	s9,t4,a2
                    if (x16 == 1)
    2500:	001cfa13          	andi	s4,s9,1
                    data >>= 1;
    2504:	005fdd13          	srli	s10,t6,0x5
                    if (x16 == 1)
    2508:	00165a93          	srli	s5,a2,0x1
    250c:	000a0b63          	beqz	s4,2522 <matrix_test+0x1332>
                         crc |= 0x8000;
    2510:	76e9                	lui	a3,0xffffa
    2512:	00168d93          	addi	s11,a3,1 # ffffffffffffa001 <tohost+0xffffffff8fa7a001>
    2516:	01bac433          	xor	s0,s5,s11
    251a:	03041813          	slli	a6,s0,0x30
    251e:	03085a93          	srli	s5,a6,0x30
                    x16 = (ee_u8)((data & 1) ^ ((ee_u8)crc & 1));
    2522:	015d4e33          	xor	t3,s10,s5
                    if (x16 == 1)
    2526:	001e7093          	andi	ra,t3,1
                    data >>= 1;
    252a:	006fd393          	srli	t2,t6,0x6
                    if (x16 == 1)
    252e:	001adb93          	srli	s7,s5,0x1
    2532:	00008b63          	beqz	ra,2548 <matrix_test+0x1358>
                         crc |= 0x8000;
    2536:	7b69                	lui	s6,0xffffa
    2538:	001b0713          	addi	a4,s6,1 # ffffffffffffa001 <tohost+0xffffffff8fa7a001>
    253c:	00ebc7b3          	xor	a5,s7,a4
    2540:	03079313          	slli	t1,a5,0x30
    2544:	03035b93          	srli	s7,t1,0x30
                    x16 = (ee_u8)((data & 1) ^ ((ee_u8)crc & 1));
    2548:	007bcf33          	xor	t5,s7,t2
                    if (x16 == 1)
    254c:	001f7993          	andi	s3,t5,1
                    data >>= 1;
    2550:	007fdf93          	srli	t6,t6,0x7
                    if (x16 == 1)
    2554:	001bd893          	srli	a7,s7,0x1
    2558:	00098b63          	beqz	s3,256e <matrix_test+0x137e>
                         crc |= 0x8000;
    255c:	7969                	lui	s2,0xffffa
    255e:	00190e93          	addi	t4,s2,1 # ffffffffffffa001 <tohost+0xffffffff8fa7a001>
    2562:	01d8c2b3          	xor	t0,a7,t4
    2566:	03029593          	slli	a1,t0,0x30
    256a:	0305d893          	srli	a7,a1,0x30
                    if (x16 == 1)
    256e:	0018f513          	andi	a0,a7,1
    2572:	0018d413          	srli	s0,a7,0x1
    2576:	01f50b63          	beq	a0,t6,258c <matrix_test+0x139c>
                         crc |= 0x8000;
    257a:	7669                	lui	a2,0xffffa
    257c:	00160c93          	addi	s9,a2,1 # ffffffffffffa001 <tohost+0xffffffff8fa7a001>
    2580:	01944a33          	xor	s4,s0,s9
    2584:	030a1d13          	slli	s10,s4,0x30
    2588:	030d5413          	srli	s0,s10,0x30
            for (i=0; i<N; i++) {
    258c:	4281                	li	t0,0
    258e:	4801                	li	a6,0
    2590:	1a048663          	beqz	s1,273c <matrix_test+0x154c>
    2594:	76e2                	ld	a3,56(sp)
    2596:	6ca2                	ld	s9,8(sp)
    2598:	6d42                	ld	s10,16(sp)
    259a:	00149913          	slli	s2,s1,0x1
    259e:	8a36                	mv	s4,a3
    25a0:	00d909b3          	add	s3,s2,a3
                            C[i*N+j]=0;
    25a4:	00249b93          	slli	s7,s1,0x2
    25a8:	4a81                	li	s5,0
            for (i=0; i<N; i++) {
    25aa:	4b01                	li	s6,0
                    for (j=0; j<N; j++) {
    25ac:	002a9d93          	slli	s11,s5,0x2
    25b0:	019d8533          	add	a0,s11,s9
                            C[i*N+j]=0;
    25b4:	865e                	mv	a2,s7
    25b6:	4581                	li	a1,0
    25b8:	558050ef          	jal	ra,7b10 <memset>
    25bc:	882a                	mv	a6,a0
    25be:	83ea                	mv	t2,s10
                    for (j=0; j<N; j++) {
    25c0:	4e81                	li	t4,0
                            for(k=0;k<N;k++)
    25c2:	41498e33          	sub	t3,s3,s4
    25c6:	ffee0093          	addi	ra,t3,-2
    25ca:	0010d713          	srli	a4,ra,0x1
    25ce:	00170793          	addi	a5,a4,1
    25d2:	0037f313          	andi	t1,a5,3
    25d6:	889e                	mv	a7,t2
    25d8:	86d2                	mv	a3,s4
    25da:	4e01                	li	t3,0
    25dc:	08030663          	beqz	t1,2668 <matrix_test+0x1478>
    25e0:	4f05                	li	t5,1
    25e2:	05e30d63          	beq	t1,t5,263c <matrix_test+0x144c>
    25e6:	4f89                	li	t6,2
    25e8:	03f30663          	beq	t1,t6,2614 <matrix_test+0x1424>
                                        MATRES tmp=(MATRES)A[i*N+k] * (MATRES)B[k*N+j];
    25ec:	000a1283          	lh	t0,0(s4)
    25f0:	00039583          	lh	a1,0(t2)
                            for(k=0;k<N;k++)
    25f4:	002a0693          	addi	a3,s4,2
    25f8:	012388b3          	add	a7,t2,s2
                                        MATRES tmp=(MATRES)A[i*N+k] * (MATRES)B[k*N+j];
    25fc:	02b2863b          	mulw	a2,t0,a1
                                        C[i*N+j]+=bit_extract(tmp,2,4)*bit_extract(tmp,5,7);
    2600:	40265d9b          	sraiw	s11,a2,0x2
    2604:	4056551b          	sraiw	a0,a2,0x5
    2608:	00fdfe13          	andi	t3,s11,15
    260c:	07f57093          	andi	ra,a0,127
    2610:	021e0e33          	mul	t3,t3,ra
                                        MATRES tmp=(MATRES)A[i*N+k] * (MATRES)B[k*N+j];
    2614:	00069783          	lh	a5,0(a3)
    2618:	00089703          	lh	a4,0(a7)
                            for(k=0;k<N;k++)
    261c:	0689                	addi	a3,a3,2
    261e:	98ca                	add	a7,a7,s2
                                        MATRES tmp=(MATRES)A[i*N+k] * (MATRES)B[k*N+j];
    2620:	02e7833b          	mulw	t1,a5,a4
                                        C[i*N+j]+=bit_extract(tmp,2,4)*bit_extract(tmp,5,7);
    2624:	40235f1b          	sraiw	t5,t1,0x2
    2628:	40535f9b          	sraiw	t6,t1,0x5
    262c:	00ff7293          	andi	t0,t5,15
    2630:	07fff593          	andi	a1,t6,127
    2634:	02b2863b          	mulw	a2,t0,a1
    2638:	01c60e3b          	addw	t3,a2,t3
                                        MATRES tmp=(MATRES)A[i*N+k] * (MATRES)B[k*N+j];
    263c:	00069d83          	lh	s11,0(a3)
    2640:	00089503          	lh	a0,0(a7)
                            for(k=0;k<N;k++)
    2644:	0689                	addi	a3,a3,2
    2646:	98ca                	add	a7,a7,s2
                                        MATRES tmp=(MATRES)A[i*N+k] * (MATRES)B[k*N+j];
    2648:	02ad80bb          	mulw	ra,s11,a0
                                        C[i*N+j]+=bit_extract(tmp,2,4)*bit_extract(tmp,5,7);
    264c:	4020d71b          	sraiw	a4,ra,0x2
    2650:	4050d79b          	sraiw	a5,ra,0x5
    2654:	00f77313          	andi	t1,a4,15
    2658:	07f7ff13          	andi	t5,a5,127
    265c:	03e30fbb          	mulw	t6,t1,t5
    2660:	01cf8e3b          	addw	t3,t6,t3
                            for(k=0;k<N;k++)
    2664:	0b368463          	beq	a3,s3,270c <matrix_test+0x151c>
    2668:	012882b3          	add	t0,a7,s2
                                        MATRES tmp=(MATRES)A[i*N+k] * (MATRES)B[k*N+j];
    266c:	00069603          	lh	a2,0(a3)
    2670:	00089d83          	lh	s11,0(a7)
                            for(k=0;k<N;k++)
    2674:	01228533          	add	a0,t0,s2
                                        MATRES tmp=(MATRES)A[i*N+k] * (MATRES)B[k*N+j];
    2678:	00269083          	lh	ra,2(a3)
    267c:	00029783          	lh	a5,0(t0)
    2680:	00469583          	lh	a1,4(a3)
                            for(k=0;k<N;k++)
    2684:	012508b3          	add	a7,a0,s2
                                        MATRES tmp=(MATRES)A[i*N+k] * (MATRES)B[k*N+j];
    2688:	00051303          	lh	t1,0(a0)
    268c:	03b6073b          	mulw	a4,a2,s11
    2690:	00669283          	lh	t0,6(a3)
    2694:	00089603          	lh	a2,0(a7)
                            for(k=0;k<N;k++)
    2698:	06a1                	addi	a3,a3,8
    269a:	98ca                	add	a7,a7,s2
                                        MATRES tmp=(MATRES)A[i*N+k] * (MATRES)B[k*N+j];
    269c:	02f08dbb          	mulw	s11,ra,a5
                                        C[i*N+j]+=bit_extract(tmp,2,4)*bit_extract(tmp,5,7);
    26a0:	40275f1b          	sraiw	t5,a4,0x2
    26a4:	4057509b          	sraiw	ra,a4,0x5
    26a8:	07f0f713          	andi	a4,ra,127
    26ac:	00ff7f93          	andi	t6,t5,15
                                        MATRES tmp=(MATRES)A[i*N+k] * (MATRES)B[k*N+j];
    26b0:	0265833b          	mulw	t1,a1,t1
                                        C[i*N+j]+=bit_extract(tmp,2,4)*bit_extract(tmp,5,7);
    26b4:	405dd79b          	sraiw	a5,s11,0x5
    26b8:	402dd51b          	sraiw	a0,s11,0x2
    26bc:	07f7f593          	andi	a1,a5,127
    26c0:	00f57d93          	andi	s11,a0,15
                                        MATRES tmp=(MATRES)A[i*N+k] * (MATRES)B[k*N+j];
    26c4:	02c2863b          	mulw	a2,t0,a2
                                        C[i*N+j]+=bit_extract(tmp,2,4)*bit_extract(tmp,5,7);
    26c8:	40535f1b          	sraiw	t5,t1,0x5
    26cc:	4023529b          	sraiw	t0,t1,0x2
    26d0:	00f2f093          	andi	ra,t0,15
    26d4:	07ff7313          	andi	t1,t5,127
    26d8:	02ef8fbb          	mulw	t6,t6,a4
    26dc:	4056551b          	sraiw	a0,a2,0x5
    26e0:	4026571b          	sraiw	a4,a2,0x2
    26e4:	00f77613          	andi	a2,a4,15
    26e8:	07f57293          	andi	t0,a0,127
    26ec:	02bd8dbb          	mulw	s11,s11,a1
    26f0:	01cf8e3b          	addw	t3,t6,t3
    26f4:	026087bb          	mulw	a5,ra,t1
    26f8:	01cd85bb          	addw	a1,s11,t3
    26fc:	02560f3b          	mulw	t5,a2,t0
    2700:	00b780bb          	addw	ra,a5,a1
    2704:	001f0e3b          	addw	t3,t5,ra
                            for(k=0;k<N;k++)
    2708:	f73690e3          	bne	a3,s3,2668 <matrix_test+0x1478>
    270c:	01c82023          	sw	t3,0(a6)
                    for (j=0; j<N; j++) {
    2710:	001e8893          	addi	a7,t4,1
    2714:	0811                	addi	a6,a6,4
    2716:	0389                	addi	t2,t2,2
    2718:	01148463          	beq	s1,a7,2720 <matrix_test+0x1530>
    271c:	8ec6                	mv	t4,a7
    271e:	b555                	j	25c2 <matrix_test+0x13d2>
            for (i=0; i<N; i++) {
    2720:	001b0813          	addi	a6,s6,1
    2724:	9a4a                	add	s4,s4,s2
    2726:	9aa6                	add	s5,s5,s1
    2728:	012689b3          	add	s3,a3,s2
    272c:	63db0963          	beq	s6,t4,2d5e <matrix_test+0x1b6e>
    2730:	8b42                	mv	s6,a6
    2732:	bdad                	j	25ac <matrix_test+0x13bc>
        crc=crcu8( (ee_u8) (newval)               ,crc);
    2734:	0fff7813          	andi	a6,t5,255
        crc=crcu8( (ee_u8) ((newval)>>8)    ,crc);
    2738:	00895293          	srli	t0,s2,0x8
                    x16 = (ee_u8)((data & 1) ^ ((ee_u8)crc & 1));
    273c:	01044633          	xor	a2,s0,a6
                    if (x16 == 1)
    2740:	00167d93          	andi	s11,a2,1
                    data >>= 1;
    2744:	00185e13          	srli	t3,a6,0x1
                    if (x16 == 1)
    2748:	00145a93          	srli	s5,s0,0x1
    274c:	000d8b63          	beqz	s11,2762 <matrix_test+0x1572>
                         crc |= 0x8000;
    2750:	70e9                	lui	ra,0xffffa
    2752:	00108a13          	addi	s4,ra,1 # ffffffffffffa001 <tohost+0xffffffff8fa7a001>
    2756:	014ac7b3          	xor	a5,s5,s4
    275a:	03079713          	slli	a4,a5,0x30
    275e:	03075a93          	srli	s5,a4,0x30
                    x16 = (ee_u8)((data & 1) ^ ((ee_u8)crc & 1));
    2762:	01cac9b3          	xor	s3,s5,t3
                    if (x16 == 1)
    2766:	0019ff13          	andi	t5,s3,1
                    data >>= 1;
    276a:	00285393          	srli	t2,a6,0x2
                    if (x16 == 1)
    276e:	001ad893          	srli	a7,s5,0x1
    2772:	000f0b63          	beqz	t5,2788 <matrix_test+0x1598>
                         crc |= 0x8000;
    2776:	7fe9                	lui	t6,0xffffa
    2778:	001f8313          	addi	t1,t6,1 # ffffffffffffa001 <tohost+0xffffffff8fa7a001>
    277c:	0068c433          	xor	s0,a7,t1
    2780:	03041593          	slli	a1,s0,0x30
    2784:	0305d893          	srli	a7,a1,0x30
                    x16 = (ee_u8)((data & 1) ^ ((ee_u8)crc & 1));
    2788:	0078cbb3          	xor	s7,a7,t2
                    if (x16 == 1)
    278c:	001bfe93          	andi	t4,s7,1
                    data >>= 1;
    2790:	00385693          	srli	a3,a6,0x3
                    if (x16 == 1)
    2794:	0018dd13          	srli	s10,a7,0x1
    2798:	000e8b63          	beqz	t4,27ae <matrix_test+0x15be>
                         crc |= 0x8000;
    279c:	7569                	lui	a0,0xffffa
    279e:	00150b13          	addi	s6,a0,1 # ffffffffffffa001 <tohost+0xffffffff8fa7a001>
    27a2:	016d4933          	xor	s2,s10,s6
    27a6:	03091c93          	slli	s9,s2,0x30
    27aa:	030cdd13          	srli	s10,s9,0x30
                    x16 = (ee_u8)((data & 1) ^ ((ee_u8)crc & 1));
    27ae:	01a6c633          	xor	a2,a3,s10
                    if (x16 == 1)
    27b2:	00167d93          	andi	s11,a2,1
                    data >>= 1;
    27b6:	00485e13          	srli	t3,a6,0x4
                    if (x16 == 1)
    27ba:	001d5a93          	srli	s5,s10,0x1
    27be:	000d8b63          	beqz	s11,27d4 <matrix_test+0x15e4>
                         crc |= 0x8000;
    27c2:	70e9                	lui	ra,0xffffa
    27c4:	00108a13          	addi	s4,ra,1 # ffffffffffffa001 <tohost+0xffffffff8fa7a001>
    27c8:	014ac7b3          	xor	a5,s5,s4
    27cc:	03079713          	slli	a4,a5,0x30
    27d0:	03075a93          	srli	s5,a4,0x30
                    x16 = (ee_u8)((data & 1) ^ ((ee_u8)crc & 1));
    27d4:	01cac9b3          	xor	s3,s5,t3
                    if (x16 == 1)
    27d8:	0019ff13          	andi	t5,s3,1
                    data >>= 1;
    27dc:	00585393          	srli	t2,a6,0x5
                    if (x16 == 1)
    27e0:	001ad893          	srli	a7,s5,0x1
    27e4:	000f0b63          	beqz	t5,27fa <matrix_test+0x160a>
                         crc |= 0x8000;
    27e8:	7fe9                	lui	t6,0xffffa
    27ea:	001f8313          	addi	t1,t6,1 # ffffffffffffa001 <tohost+0xffffffff8fa7a001>
    27ee:	0068c433          	xor	s0,a7,t1
    27f2:	03041593          	slli	a1,s0,0x30
    27f6:	0305d893          	srli	a7,a1,0x30
                    x16 = (ee_u8)((data & 1) ^ ((ee_u8)crc & 1));
    27fa:	0078cbb3          	xor	s7,a7,t2
                    if (x16 == 1)
    27fe:	001bfe93          	andi	t4,s7,1
                    data >>= 1;
    2802:	00685693          	srli	a3,a6,0x6
                    if (x16 == 1)
    2806:	0018dd13          	srli	s10,a7,0x1
    280a:	000e8b63          	beqz	t4,2820 <matrix_test+0x1630>
                         crc |= 0x8000;
    280e:	7569                	lui	a0,0xffffa
    2810:	00150b13          	addi	s6,a0,1 # ffffffffffffa001 <tohost+0xffffffff8fa7a001>
    2814:	016d4933          	xor	s2,s10,s6
    2818:	03091c93          	slli	s9,s2,0x30
    281c:	030cdd13          	srli	s10,s9,0x30
                    x16 = (ee_u8)((data & 1) ^ ((ee_u8)crc & 1));
    2820:	00dd4633          	xor	a2,s10,a3
                    if (x16 == 1)
    2824:	00167d93          	andi	s11,a2,1
                    data >>= 1;
    2828:	00785813          	srli	a6,a6,0x7
                    if (x16 == 1)
    282c:	001d5713          	srli	a4,s10,0x1
    2830:	000d8b63          	beqz	s11,2846 <matrix_test+0x1656>
                         crc |= 0x8000;
    2834:	7e69                	lui	t3,0xffffa
    2836:	001e0093          	addi	ra,t3,1 # ffffffffffffa001 <tohost+0xffffffff8fa7a001>
    283a:	00174a33          	xor	s4,a4,ra
    283e:	030a1793          	slli	a5,s4,0x30
    2842:	0307d713          	srli	a4,a5,0x30
                    if (x16 == 1)
    2846:	00177a93          	andi	s5,a4,1
    284a:	00175313          	srli	t1,a4,0x1
    284e:	010a8b63          	beq	s5,a6,2864 <matrix_test+0x1674>
                         crc |= 0x8000;
    2852:	79e9                	lui	s3,0xffffa
    2854:	00198f13          	addi	t5,s3,1 # ffffffffffffa001 <tohost+0xffffffff8fa7a001>
    2858:	01e343b3          	xor	t2,t1,t5
    285c:	03039f93          	slli	t6,t2,0x30
    2860:	030fd313          	srli	t1,t6,0x30
                    x16 = (ee_u8)((data & 1) ^ ((ee_u8)crc & 1));
    2864:	0062c433          	xor	s0,t0,t1
                    if (x16 == 1)
    2868:	00147593          	andi	a1,s0,1
                    data >>= 1;
    286c:	0012d893          	srli	a7,t0,0x1
                    if (x16 == 1)
    2870:	00135b13          	srli	s6,t1,0x1
    2874:	c991                	beqz	a1,2888 <matrix_test+0x1698>
                         crc |= 0x8000;
    2876:	7be9                	lui	s7,0xffffa
    2878:	001b8e93          	addi	t4,s7,1 # ffffffffffffa001 <tohost+0xffffffff8fa7a001>
    287c:	01db46b3          	xor	a3,s6,t4
    2880:	03069513          	slli	a0,a3,0x30
    2884:	03055b13          	srli	s6,a0,0x30
                    x16 = (ee_u8)((data & 1) ^ ((ee_u8)crc & 1));
    2888:	011b4933          	xor	s2,s6,a7
                    if (x16 == 1)
    288c:	00197c93          	andi	s9,s2,1
                    data >>= 1;
    2890:	0022dd13          	srli	s10,t0,0x2
                    if (x16 == 1)
    2894:	001b5093          	srli	ra,s6,0x1
    2898:	000c8b63          	beqz	s9,28ae <matrix_test+0x16be>
                         crc |= 0x8000;
    289c:	7669                	lui	a2,0xffffa
    289e:	00160d93          	addi	s11,a2,1 # ffffffffffffa001 <tohost+0xffffffff8fa7a001>
    28a2:	01b0c833          	xor	a6,ra,s11
    28a6:	03081e13          	slli	t3,a6,0x30
    28aa:	030e5093          	srli	ra,t3,0x30
                    x16 = (ee_u8)((data & 1) ^ ((ee_u8)crc & 1));
    28ae:	001d4a33          	xor	s4,s10,ra
                    if (x16 == 1)
    28b2:	001a7713          	andi	a4,s4,1
                    data >>= 1;
    28b6:	0032da93          	srli	s5,t0,0x3
                    if (x16 == 1)
    28ba:	0010df93          	srli	t6,ra,0x1
    28be:	cb11                	beqz	a4,28d2 <matrix_test+0x16e2>
                         crc |= 0x8000;
    28c0:	79e9                	lui	s3,0xffffa
    28c2:	00198f13          	addi	t5,s3,1 # ffffffffffffa001 <tohost+0xffffffff8fa7a001>
    28c6:	01efc7b3          	xor	a5,t6,t5
    28ca:	03079393          	slli	t2,a5,0x30
    28ce:	0303df93          	srli	t6,t2,0x30
                    x16 = (ee_u8)((data & 1) ^ ((ee_u8)crc & 1));
    28d2:	01fac333          	xor	t1,s5,t6
                    if (x16 == 1)
    28d6:	00137413          	andi	s0,t1,1
                    data >>= 1;
    28da:	0042d593          	srli	a1,t0,0x4
                    if (x16 == 1)
    28de:	001fd513          	srli	a0,t6,0x1
    28e2:	c811                	beqz	s0,28f6 <matrix_test+0x1706>
                         crc |= 0x8000;
    28e4:	78e9                	lui	a7,0xffffa
    28e6:	00188b93          	addi	s7,a7,1 # ffffffffffffa001 <tohost+0xffffffff8fa7a001>
    28ea:	01754eb3          	xor	t4,a0,s7
    28ee:	030e9693          	slli	a3,t4,0x30
    28f2:	0306d513          	srli	a0,a3,0x30
                    x16 = (ee_u8)((data & 1) ^ ((ee_u8)crc & 1));
    28f6:	00a5cb33          	xor	s6,a1,a0
                    if (x16 == 1)
    28fa:	001b7913          	andi	s2,s6,1
                    data >>= 1;
    28fe:	0052dc93          	srli	s9,t0,0x5
                    if (x16 == 1)
    2902:	00155e13          	srli	t3,a0,0x1
    2906:	00090b63          	beqz	s2,291c <matrix_test+0x172c>
                         crc |= 0x8000;
    290a:	7d69                	lui	s10,0xffffa
    290c:	001d0613          	addi	a2,s10,1 # ffffffffffffa001 <tohost+0xffffffff8fa7a001>
    2910:	00ce4db3          	xor	s11,t3,a2
    2914:	030d9813          	slli	a6,s11,0x30
    2918:	03085e13          	srli	t3,a6,0x30
                    x16 = (ee_u8)((data & 1) ^ ((ee_u8)crc & 1));
    291c:	019e40b3          	xor	ra,t3,s9
                    if (x16 == 1)
    2920:	0010fa13          	andi	s4,ra,1
                    data >>= 1;
    2924:	0062d713          	srli	a4,t0,0x6
                    if (x16 == 1)
    2928:	001e5393          	srli	t2,t3,0x1
    292c:	000a0b63          	beqz	s4,2942 <matrix_test+0x1752>
                         crc |= 0x8000;
    2930:	7ae9                	lui	s5,0xffffa
    2932:	001a8993          	addi	s3,s5,1 # ffffffffffffa001 <tohost+0xffffffff8fa7a001>
    2936:	0133cf33          	xor	t5,t2,s3
    293a:	030f1793          	slli	a5,t5,0x30
    293e:	0307d393          	srli	t2,a5,0x30
                    x16 = (ee_u8)((data & 1) ^ ((ee_u8)crc & 1));
    2942:	00e3cfb3          	xor	t6,t2,a4
                    if (x16 == 1)
    2946:	001ff313          	andi	t1,t6,1
                    data >>= 1;
    294a:	0072d293          	srli	t0,t0,0x7
                    if (x16 == 1)
    294e:	0013de93          	srli	t4,t2,0x1
    2952:	00030b63          	beqz	t1,2968 <matrix_test+0x1778>
                         crc |= 0x8000;
    2956:	7469                	lui	s0,0xffffa
    2958:	00140593          	addi	a1,s0,1 # ffffffffffffa001 <tohost+0xffffffff8fa7a001>
    295c:	00bec8b3          	xor	a7,t4,a1
    2960:	03089b93          	slli	s7,a7,0x30
    2964:	030bde93          	srli	t4,s7,0x30
                    if (x16 == 1)
    2968:	001ed513          	srli	a0,t4,0x1
    296c:	001ef693          	andi	a3,t4,1
    2970:	f02a                	sd	a0,32(sp)
    2972:	00568c63          	beq	a3,t0,298a <matrix_test+0x179a>
                         crc |= 0x8000;
    2976:	7b69                	lui	s6,0xffffa
    2978:	001b0913          	addi	s2,s6,1 # ffffffffffffa001 <tohost+0xffffffff8fa7a001>
    297c:	01254cb3          	xor	s9,a0,s2
    2980:	030c9d13          	slli	s10,s9,0x30
    2984:	030d5613          	srli	a2,s10,0x30
    2988:	f032                	sd	a2,32(sp)
            for (i=0; i<N; i++) {
    298a:	3a048963          	beqz	s1,2d3c <matrix_test+0x1b4c>
    298e:	010c1d93          	slli	s11,s8,0x10
    2992:	020c1813          	slli	a6,s8,0x20
    2996:	01bc6e33          	or	t3,s8,s11
    299a:	60a5                	lui	ra,0x9
    299c:	010e6733          	or	a4,t3,a6
                            A[i*N+j] += val;
    29a0:	8500b783          	ld	a5,-1968(ra) # 8850 <_end>
    29a4:	7e62                	ld	t3,56(sp)
    29a6:	030c1a13          	slli	s4,s8,0x30
    29aa:	6aa5                	lui	s5,0x9
    29ac:	01476633          	or	a2,a4,s4
    29b0:	858ab703          	ld	a4,-1960(s5) # 8858 <_end+0x8>
    29b4:	00149993          	slli	s3,s1,0x1
    29b8:	fff48f13          	addi	t5,s1,-1
    29bc:	e44e                	sd	s3,8(sp)
    29be:	88f2                	mv	a7,t3
            for (i=0; i<N; i++) {
    29c0:	4801                	li	a6,0
    29c2:	4901                	li	s2,0
    29c4:	e87a                	sd	t5,16(sp)
                            A[i*N+j] += val;
    29c6:	00f675b3          	and	a1,a2,a5
                    for (j=0; j<N; j++) {
    29ca:	0018d393          	srli	t2,a7,0x1
    29ce:	40700fb3          	neg	t6,t2
    29d2:	003ff293          	andi	t0,t6,3
    29d6:	00328413          	addi	s0,t0,3
    29da:	4315                	li	t1,5
    29dc:	00647363          	bgeu	s0,t1,29e2 <matrix_test+0x17f2>
    29e0:	4415                	li	s0,5
    29e2:	6bc2                	ld	s7,16(sp)
    29e4:	7c8be963          	bltu	s7,s0,31b6 <matrix_test+0x1fc6>
    29e8:	4681                	li	a3,0
    29ea:	02028c63          	beqz	t0,2a22 <matrix_test+0x1832>
                            A[i*N+j] += val;
    29ee:	0008de83          	lhu	t4,0(a7)
                    for (j=0; j<N; j++) {
    29f2:	4685                	li	a3,1
                            A[i*N+j] += val;
    29f4:	418e853b          	subw	a0,t4,s8
    29f8:	00a89023          	sh	a0,0(a7)
                    for (j=0; j<N; j++) {
    29fc:	02d28363          	beq	t0,a3,2a22 <matrix_test+0x1832>
                            A[i*N+j] += val;
    2a00:	0028db03          	lhu	s6,2(a7)
    2a04:	4c8d                	li	s9,3
                    for (j=0; j<N; j++) {
    2a06:	4689                	li	a3,2
                            A[i*N+j] += val;
    2a08:	418b0d3b          	subw	s10,s6,s8
    2a0c:	01a89123          	sh	s10,2(a7)
                    for (j=0; j<N; j++) {
    2a10:	01929963          	bne	t0,s9,2a22 <matrix_test+0x1832>
                            A[i*N+j] += val;
    2a14:	0048dd83          	lhu	s11,4(a7)
                    for (j=0; j<N; j++) {
    2a18:	468d                	li	a3,3
                            A[i*N+j] += val;
    2a1a:	418d80bb          	subw	ra,s11,s8
    2a1e:	00189223          	sh	ra,4(a7)
                    for (j=0; j<N; j++) {
    2a22:	40548cb3          	sub	s9,s1,t0
    2a26:	002cda13          	srli	s4,s9,0x2
    2a2a:	003a1a93          	slli	s5,s4,0x3
    2a2e:	01028f33          	add	t5,t0,a6
    2a32:	ff8a8993          	addi	s3,s5,-8
    2a36:	001f1793          	slli	a5,t5,0x1
    2a3a:	0039d393          	srli	t2,s3,0x3
    2a3e:	97f2                	add	a5,a5,t3
    2a40:	00138f93          	addi	t6,t2,1
    2a44:	00fa8333          	add	t1,s5,a5
    2a48:	007ff293          	andi	t0,t6,7
    2a4c:	e01a                	sd	t1,0(sp)
    2a4e:	10028e63          	beqz	t0,2b6a <matrix_test+0x197a>
    2a52:	4405                	li	s0,1
    2a54:	0e828763          	beq	t0,s0,2b42 <matrix_test+0x1952>
    2a58:	4b89                	li	s7,2
    2a5a:	0d728363          	beq	t0,s7,2b20 <matrix_test+0x1930>
    2a5e:	4e8d                	li	t4,3
    2a60:	09d28f63          	beq	t0,t4,2afe <matrix_test+0x190e>
    2a64:	4511                	li	a0,4
    2a66:	06a28b63          	beq	t0,a0,2adc <matrix_test+0x18ec>
    2a6a:	4b15                	li	s6,5
    2a6c:	05628763          	beq	t0,s6,2aba <matrix_test+0x18ca>
    2a70:	4d19                	li	s10,6
    2a72:	03a28363          	beq	t0,s10,2a98 <matrix_test+0x18a8>
                            A[i*N+j] += val;
    2a76:	0007bd83          	ld	s11,0(a5)
    2a7a:	07a1                	addi	a5,a5,8
    2a7c:	00cdc0b3          	xor	ra,s11,a2
    2a80:	fff0ca13          	not	s4,ra
    2a84:	00edeab3          	or	s5,s11,a4
    2a88:	00ea79b3          	and	s3,s4,a4
    2a8c:	40ba8f33          	sub	t5,s5,a1
    2a90:	01e9c3b3          	xor	t2,s3,t5
    2a94:	fe77bc23          	sd	t2,-8(a5)
    2a98:	0007bf83          	ld	t6,0(a5)
    2a9c:	07a1                	addi	a5,a5,8
    2a9e:	00cfc2b3          	xor	t0,t6,a2
    2aa2:	fff2c413          	not	s0,t0
    2aa6:	00efe333          	or	t1,t6,a4
    2aaa:	00e47bb3          	and	s7,s0,a4
    2aae:	40b30eb3          	sub	t4,t1,a1
    2ab2:	01dbc533          	xor	a0,s7,t4
    2ab6:	fea7bc23          	sd	a0,-8(a5)
    2aba:	0007bb03          	ld	s6,0(a5)
    2abe:	07a1                	addi	a5,a5,8
    2ac0:	00cb4d33          	xor	s10,s6,a2
    2ac4:	fffd4d93          	not	s11,s10
    2ac8:	00eb60b3          	or	ra,s6,a4
    2acc:	00edfa33          	and	s4,s11,a4
    2ad0:	40b08ab3          	sub	s5,ra,a1
    2ad4:	015a49b3          	xor	s3,s4,s5
    2ad8:	ff37bc23          	sd	s3,-8(a5)
    2adc:	0007bf03          	ld	t5,0(a5)
    2ae0:	07a1                	addi	a5,a5,8
    2ae2:	00cf43b3          	xor	t2,t5,a2
    2ae6:	fff3cf93          	not	t6,t2
    2aea:	00ef62b3          	or	t0,t5,a4
    2aee:	00eff433          	and	s0,t6,a4
    2af2:	40b28333          	sub	t1,t0,a1
    2af6:	00644bb3          	xor	s7,s0,t1
    2afa:	ff77bc23          	sd	s7,-8(a5)
    2afe:	0007be83          	ld	t4,0(a5)
    2b02:	07a1                	addi	a5,a5,8
    2b04:	00cec533          	xor	a0,t4,a2
    2b08:	fff54b13          	not	s6,a0
    2b0c:	00eeed33          	or	s10,t4,a4
    2b10:	00eb7db3          	and	s11,s6,a4
    2b14:	40bd00b3          	sub	ra,s10,a1
    2b18:	001dca33          	xor	s4,s11,ra
    2b1c:	ff47bc23          	sd	s4,-8(a5)
    2b20:	0007ba83          	ld	s5,0(a5)
    2b24:	07a1                	addi	a5,a5,8
    2b26:	00cac9b3          	xor	s3,s5,a2
    2b2a:	fff9cf13          	not	t5,s3
    2b2e:	00eae3b3          	or	t2,s5,a4
    2b32:	00ef7fb3          	and	t6,t5,a4
    2b36:	40b382b3          	sub	t0,t2,a1
    2b3a:	005fc433          	xor	s0,t6,t0
    2b3e:	fe87bc23          	sd	s0,-8(a5)
    2b42:	0007b303          	ld	t1,0(a5)
    2b46:	6082                	ld	ra,0(sp)
    2b48:	07a1                	addi	a5,a5,8
    2b4a:	00c34bb3          	xor	s7,t1,a2
    2b4e:	fffbce93          	not	t4,s7
    2b52:	00e36b33          	or	s6,t1,a4
    2b56:	00eef533          	and	a0,t4,a4
    2b5a:	40bb0d33          	sub	s10,s6,a1
    2b5e:	01a54db3          	xor	s11,a0,s10
    2b62:	ffb7bc23          	sd	s11,-8(a5)
                    for (j=0; j<N; j++) {
    2b66:	10178563          	beq	a5,ra,2c70 <matrix_test+0x1a80>
    2b6a:	ec4a                	sd	s2,24(sp)
                            A[i*N+j] += val;
    2b6c:	0007bf03          	ld	t5,0(a5)
    2b70:	0087be83          	ld	t4,8(a5)
    2b74:	6f88                	ld	a0,24(a5)
    2b76:	0107b303          	ld	t1,16(a5)
    2b7a:	0207ba03          	ld	s4,32(a5)
    2b7e:	0287b983          	ld	s3,40(a5)
    2b82:	0307b903          	ld	s2,48(a5)
    2b86:	0387bd83          	ld	s11,56(a5)
    2b8a:	00cf4d33          	xor	s10,t5,a2
    2b8e:	00cecbb3          	xor	s7,t4,a2
    2b92:	00c54ab3          	xor	s5,a0,a2
    2b96:	00c34b33          	xor	s6,t1,a2
    2b9a:	00ca4433          	xor	s0,s4,a2
    2b9e:	00c9c3b3          	xor	t2,s3,a2
    2ba2:	00c942b3          	xor	t0,s2,a2
    2ba6:	00cdcfb3          	xor	t6,s11,a2
    2baa:	fffd4093          	not	ra,s10
    2bae:	00ef6f33          	or	t5,t5,a4
    2bb2:	fffbcb93          	not	s7,s7
    2bb6:	00eeeeb3          	or	t4,t4,a4
    2bba:	fffaca93          	not	s5,s5
    2bbe:	8d59                	or	a0,a0,a4
    2bc0:	00e0fd33          	and	s10,ra,a4
    2bc4:	00ebfbb3          	and	s7,s7,a4
    2bc8:	40bf00b3          	sub	ra,t5,a1
    2bcc:	40be8eb3          	sub	t4,t4,a1
    2bd0:	00eafab3          	and	s5,s5,a4
    2bd4:	8d0d                	sub	a0,a0,a1
    2bd6:	fffb4b13          	not	s6,s6
    2bda:	00e36333          	or	t1,t1,a4
    2bde:	fff44413          	not	s0,s0
    2be2:	00ea6a33          	or	s4,s4,a4
    2be6:	fff3c393          	not	t2,t2
    2bea:	00e9e9b3          	or	s3,s3,a4
    2bee:	fff2c293          	not	t0,t0
    2bf2:	00e96933          	or	s2,s2,a4
    2bf6:	ffffcf93          	not	t6,t6
    2bfa:	00ededb3          	or	s11,s11,a4
    2bfe:	001d4f33          	xor	t5,s10,ra
    2c02:	00eb7b33          	and	s6,s6,a4
    2c06:	01dbcd33          	xor	s10,s7,t4
    2c0a:	40b30333          	sub	t1,t1,a1
    2c0e:	00aacbb3          	xor	s7,s5,a0
    2c12:	8c79                	and	s0,s0,a4
    2c14:	40ba0a33          	sub	s4,s4,a1
    2c18:	00e3f3b3          	and	t2,t2,a4
    2c1c:	40b989b3          	sub	s3,s3,a1
    2c20:	00e2f2b3          	and	t0,t0,a4
    2c24:	40b90933          	sub	s2,s2,a1
    2c28:	00efffb3          	and	t6,t6,a4
    2c2c:	40bd8db3          	sub	s11,s11,a1
    2c30:	6502                	ld	a0,0(sp)
    2c32:	006b40b3          	xor	ra,s6,t1
    2c36:	01444eb3          	xor	t4,s0,s4
    2c3a:	0133cb33          	xor	s6,t2,s3
    2c3e:	0122c333          	xor	t1,t0,s2
    2c42:	01bfcab3          	xor	s5,t6,s11
    2c46:	01e7b023          	sd	t5,0(a5)
    2c4a:	01a7b423          	sd	s10,8(a5)
    2c4e:	0017b823          	sd	ra,16(a5)
    2c52:	0177bc23          	sd	s7,24(a5)
    2c56:	03d7b023          	sd	t4,32(a5)
    2c5a:	0367b423          	sd	s6,40(a5)
    2c5e:	0267b823          	sd	t1,48(a5)
    2c62:	0357bc23          	sd	s5,56(a5)
                    for (j=0; j<N; j++) {
    2c66:	04078793          	addi	a5,a5,64
    2c6a:	f0a791e3          	bne	a5,a0,2b6c <matrix_test+0x197c>
    2c6e:	6962                	ld	s2,24(sp)
    2c70:	ffccf793          	andi	a5,s9,-4
    2c74:	96be                	add	a3,a3,a5
    2c76:	0b978d63          	beq	a5,s9,2d30 <matrix_test+0x1b40>
                            A[i*N+j] += val;
    2c7a:	01068cb3          	add	s9,a3,a6
    2c7e:	001c9413          	slli	s0,s9,0x1
    2c82:	008e0a33          	add	s4,t3,s0
    2c86:	000a5383          	lhu	t2,0(s4)
                    for (j=0; j<N; j++) {
    2c8a:	00168993          	addi	s3,a3,1
                            A[i*N+j] += val;
    2c8e:	418382bb          	subw	t0,t2,s8
    2c92:	005a1023          	sh	t0,0(s4)
                    for (j=0; j<N; j++) {
    2c96:	0899fd63          	bgeu	s3,s1,2d30 <matrix_test+0x1b40>
                            A[i*N+j] += val;
    2c9a:	01098fb3          	add	t6,s3,a6
    2c9e:	001f9d93          	slli	s11,t6,0x1
    2ca2:	01be0f33          	add	t5,t3,s11
    2ca6:	000f5d03          	lhu	s10,0(t5)
                    for (j=0; j<N; j++) {
    2caa:	00268093          	addi	ra,a3,2
                            A[i*N+j] += val;
    2cae:	418d0bbb          	subw	s7,s10,s8
    2cb2:	017f1023          	sh	s7,0(t5)
                    for (j=0; j<N; j++) {
    2cb6:	0690fd63          	bgeu	ra,s1,2d30 <matrix_test+0x1b40>
                            A[i*N+j] += val;
    2cba:	01008eb3          	add	t4,ra,a6
    2cbe:	001e9b13          	slli	s6,t4,0x1
    2cc2:	016e0ab3          	add	s5,t3,s6
    2cc6:	000ad303          	lhu	t1,0(s5)
                    for (j=0; j<N; j++) {
    2cca:	00368513          	addi	a0,a3,3
                            A[i*N+j] += val;
    2cce:	418307bb          	subw	a5,t1,s8
    2cd2:	00fa9023          	sh	a5,0(s5)
                    for (j=0; j<N; j++) {
    2cd6:	04957d63          	bgeu	a0,s1,2d30 <matrix_test+0x1b40>
                            A[i*N+j] += val;
    2cda:	01050cb3          	add	s9,a0,a6
    2cde:	001c9413          	slli	s0,s9,0x1
    2ce2:	008e0a33          	add	s4,t3,s0
    2ce6:	000a5383          	lhu	t2,0(s4)
                    for (j=0; j<N; j++) {
    2cea:	00468993          	addi	s3,a3,4
                            A[i*N+j] += val;
    2cee:	418382bb          	subw	t0,t2,s8
    2cf2:	005a1023          	sh	t0,0(s4)
                    for (j=0; j<N; j++) {
    2cf6:	0299fd63          	bgeu	s3,s1,2d30 <matrix_test+0x1b40>
                            A[i*N+j] += val;
    2cfa:	01098fb3          	add	t6,s3,a6
    2cfe:	001f9d93          	slli	s11,t6,0x1
    2d02:	01be0f33          	add	t5,t3,s11
    2d06:	000f5d03          	lhu	s10,0(t5)
                    for (j=0; j<N; j++) {
    2d0a:	0695                	addi	a3,a3,5
                            A[i*N+j] += val;
    2d0c:	418d00bb          	subw	ra,s10,s8
    2d10:	001f1023          	sh	ra,0(t5)
                    for (j=0; j<N; j++) {
    2d14:	0096fe63          	bgeu	a3,s1,2d30 <matrix_test+0x1b40>
                            A[i*N+j] += val;
    2d18:	01068bb3          	add	s7,a3,a6
    2d1c:	001b9e93          	slli	t4,s7,0x1
    2d20:	01de0b33          	add	s6,t3,t4
    2d24:	000b5a83          	lhu	s5,0(s6)
    2d28:	418a833b          	subw	t1,s5,s8
    2d2c:	006b1023          	sh	t1,0(s6)
            for (i=0; i<N; i++) {
    2d30:	6522                	ld	a0,8(sp)
    2d32:	0905                	addi	s2,s2,1
    2d34:	9826                	add	a6,a6,s1
    2d36:	98aa                	add	a7,a7,a0
    2d38:	c92499e3          	bne	s1,s2,29ca <matrix_test+0x17da>
    }
    2d3c:	70ea                	ld	ra,184(sp)
    2d3e:	744a                	ld	s0,176(sp)
    2d40:	02011503          	lh	a0,32(sp)
    2d44:	74aa                	ld	s1,168(sp)
    2d46:	790a                	ld	s2,160(sp)
    2d48:	69ea                	ld	s3,152(sp)
    2d4a:	6a4a                	ld	s4,144(sp)
    2d4c:	6aaa                	ld	s5,136(sp)
    2d4e:	6b0a                	ld	s6,128(sp)
    2d50:	7be6                	ld	s7,120(sp)
    2d52:	7c46                	ld	s8,112(sp)
    2d54:	7ca6                	ld	s9,104(sp)
    2d56:	7d06                	ld	s10,96(sp)
    2d58:	6de6                	ld	s11,88(sp)
    2d5a:	6129                	addi	sp,sp,192
    2d5c:	8082                	ret
    2d5e:	6922                	ld	s2,8(sp)
                            if (tmp>clipval) {
    2d60:	4586                	lw	a1,64(sp)
    2d62:	40900b33          	neg	s6,s1
    2d66:	01790533          	add	a0,s2,s7
    2d6a:	002b1893          	slli	a7,s6,0x2
    2d6e:	4f01                	li	t5,0
    2d70:	4e01                	li	t3,0
    2d72:	4701                	li	a4,0
    2d74:	4801                	li	a6,0
                    for (j=0; j<N; j++) {
    2d76:	41100cb3          	neg	s9,a7
    2d7a:	ffcc8d13          	addi	s10,s9,-4
    2d7e:	002d5393          	srli	t2,s10,0x2
    2d82:	00138693          	addi	a3,t2,1
    2d86:	0036ff93          	andi	t6,a3,3
    2d8a:	01150333          	add	t1,a0,a7
    2d8e:	120f8163          	beqz	t6,2eb0 <matrix_test+0x1cc0>
    2d92:	4605                	li	a2,1
    2d94:	04cf8b63          	beq	t6,a2,2dea <matrix_test+0x1bfa>
    2d98:	4289                	li	t0,2
    2d9a:	025f8563          	beq	t6,t0,2dc4 <matrix_test+0x1bd4>
                            cur=C[i*N+j];
    2d9e:	8df2                	mv	s11,t3
    2da0:	00032e03          	lw	t3,0(t1)
                                    ret+=10;
    2da4:	030f1793          	slli	a5,t5,0x30
    2da8:	0307df13          	srli	t5,a5,0x30
                            tmp+=cur;
    2dac:	00ee073b          	addw	a4,t3,a4
                            if (tmp>clipval) {
    2db0:	1ce5d363          	bge	a1,a4,2f76 <matrix_test+0x1d86>
                                    ret+=10;
    2db4:	00af071b          	addiw	a4,t5,10
    2db8:	0107199b          	slliw	s3,a4,0x10
    2dbc:	4109df1b          	sraiw	t5,s3,0x10
                                    tmp=0;
    2dc0:	4701                	li	a4,0
                    for (j=0; j<N; j++) {
    2dc2:	0311                	addi	t1,t1,4
                            cur=C[i*N+j];
    2dc4:	8b72                	mv	s6,t3
    2dc6:	00032e03          	lw	t3,0(t1)
                                    ret+=10;
    2dca:	030f1913          	slli	s2,t5,0x30
    2dce:	03095c93          	srli	s9,s2,0x30
                            tmp+=cur;
    2dd2:	00ee073b          	addw	a4,t3,a4
                            if (tmp>clipval) {
    2dd6:	18e5d763          	bge	a1,a4,2f64 <matrix_test+0x1d74>
                                    ret+=10;
    2dda:	00ac8f9b          	addiw	t6,s9,10
    2dde:	010f961b          	slliw	a2,t6,0x10
    2de2:	41065f1b          	sraiw	t5,a2,0x10
                                    tmp=0;
    2de6:	4701                	li	a4,0
                    for (j=0; j<N; j++) {
    2de8:	0311                	addi	t1,t1,4
                            cur=C[i*N+j];
    2dea:	82f2                	mv	t0,t3
    2dec:	00032e03          	lw	t3,0(t1)
                                    ret+=10;
    2df0:	030f1d93          	slli	s11,t5,0x30
    2df4:	030dd793          	srli	a5,s11,0x30
                            tmp+=cur;
    2df8:	00ee073b          	addw	a4,t3,a4
                            if (tmp>clipval) {
    2dfc:	14e5d763          	bge	a1,a4,2f4a <matrix_test+0x1d5a>
                                    ret+=10;
    2e00:	00a7871b          	addiw	a4,a5,10
    2e04:	03071993          	slli	s3,a4,0x30
    2e08:	01071b1b          	slliw	s6,a4,0x10
    2e0c:	0309d913          	srli	s2,s3,0x30
    2e10:	410b5f1b          	sraiw	t5,s6,0x10
                                    tmp=0;
    2e14:	4701                	li	a4,0
                    for (j=0; j<N; j++) {
    2e16:	0311                	addi	t1,t1,4
    2e18:	08651c63          	bne	a0,t1,2eb0 <matrix_test+0x1cc0>
            for (i=0; i<N; i++) {
    2e1c:	00180693          	addi	a3,a6,1
    2e20:	955e                	add	a0,a0,s7
    2e22:	910e89e3          	beq	t4,a6,2734 <matrix_test+0x1544>
    2e26:	8836                	mv	a6,a3
    2e28:	b7b9                	j	2d76 <matrix_test+0x1b86>
                                        ret += (cur>prev) ? 1 : 0;
    2e2a:	012e2e33          	slt	t3,t3,s2
                            cur=C[i*N+j];
    2e2e:	00432f03          	lw	t5,4(t1)
                                        ret += (cur>prev) ? 1 : 0;
    2e32:	01ae03bb          	addw	t2,t3,s10
    2e36:	0103969b          	slliw	a3,t2,0x10
    2e3a:	4106d29b          	sraiw	t0,a3,0x10
                                    ret+=10;
    2e3e:	03029793          	slli	a5,t0,0x30
                            tmp+=cur;
    2e42:	01bf0a3b          	addw	s4,t5,s11
                    for (j=0; j<N; j++) {
    2e46:	0311                	addi	t1,t1,4
                                    ret+=10;
    2e48:	0307d093          	srli	ra,a5,0x30
                            if (tmp>clipval) {
    2e4c:	0945de63          	bge	a1,s4,2ee8 <matrix_test+0x1cf8>
                            cur=C[i*N+j];
    2e50:	00432d03          	lw	s10,4(t1)
                                    ret+=10;
    2e54:	00a0891b          	addiw	s2,ra,10
    2e58:	01091c9b          	slliw	s9,s2,0x10
    2e5c:	410cdb1b          	sraiw	s6,s9,0x10
                                    tmp=0;
    2e60:	4a01                	li	s4,0
                                    ret+=10;
    2e62:	030b1e13          	slli	t3,s6,0x30
                            tmp+=cur;
    2e66:	014d0fbb          	addw	t6,s10,s4
                                    ret+=10;
    2e6a:	030e5393          	srli	t2,t3,0x30
                            if (tmp>clipval) {
    2e6e:	09f5df63          	bge	a1,t6,2f0c <matrix_test+0x1d1c>
                            cur=C[i*N+j];
    2e72:	00832e03          	lw	t3,8(t1)
                                    ret+=10;
    2e76:	00a38f1b          	addiw	t5,t2,10
    2e7a:	010f179b          	slliw	a5,t5,0x10
    2e7e:	4107dd9b          	sraiw	s11,a5,0x10
                                    tmp=0;
    2e82:	4f81                	li	t6,0
                                    ret+=10;
    2e84:	030d9093          	slli	ra,s11,0x30
                            tmp+=cur;
    2e88:	01fe073b          	addw	a4,t3,t6
                                    ret+=10;
    2e8c:	0300da13          	srli	s4,ra,0x30
                            if (tmp>clipval) {
    2e90:	0ae5d063          	bge	a1,a4,2f30 <matrix_test+0x1d40>
                                    ret+=10;
    2e94:	00aa0d1b          	addiw	s10,s4,10
    2e98:	030d1393          	slli	t2,s10,0x30
    2e9c:	010d1f9b          	slliw	t6,s10,0x10
    2ea0:	0303d913          	srli	s2,t2,0x30
    2ea4:	410fdf1b          	sraiw	t5,t6,0x10
                                    tmp=0;
    2ea8:	4701                	li	a4,0
                    for (j=0; j<N; j++) {
    2eaa:	0331                	addi	t1,t1,12
    2eac:	f66508e3          	beq	a0,t1,2e1c <matrix_test+0x1c2c>
                            cur=C[i*N+j];
    2eb0:	00032903          	lw	s2,0(t1)
                                    ret+=10;
    2eb4:	030f1c93          	slli	s9,t5,0x30
    2eb8:	030cdd13          	srli	s10,s9,0x30
                            tmp+=cur;
    2ebc:	00e90dbb          	addw	s11,s2,a4
                            if (tmp>clipval) {
    2ec0:	f7b5d5e3          	bge	a1,s11,2e2a <matrix_test+0x1c3a>
                            cur=C[i*N+j];
    2ec4:	00432f03          	lw	t5,4(t1)
                                    ret+=10;
    2ec8:	00ad0f9b          	addiw	t6,s10,10
    2ecc:	010f961b          	slliw	a2,t6,0x10
    2ed0:	4106529b          	sraiw	t0,a2,0x10
                                    tmp=0;
    2ed4:	4d81                	li	s11,0
                                    ret+=10;
    2ed6:	03029793          	slli	a5,t0,0x30
                            tmp+=cur;
    2eda:	01bf0a3b          	addw	s4,t5,s11
                    for (j=0; j<N; j++) {
    2ede:	0311                	addi	t1,t1,4
                                    ret+=10;
    2ee0:	0307d093          	srli	ra,a5,0x30
                            if (tmp>clipval) {
    2ee4:	f745c6e3          	blt	a1,s4,2e50 <matrix_test+0x1c60>
                                        ret += (cur>prev) ? 1 : 0;
    2ee8:	01e92ab3          	slt	s5,s2,t5
                            cur=C[i*N+j];
    2eec:	00432d03          	lw	s10,4(t1)
                                        ret += (cur>prev) ? 1 : 0;
    2ef0:	001a873b          	addw	a4,s5,ra
    2ef4:	0107199b          	slliw	s3,a4,0x10
    2ef8:	4109db1b          	sraiw	s6,s3,0x10
                                    ret+=10;
    2efc:	030b1e13          	slli	t3,s6,0x30
                            tmp+=cur;
    2f00:	014d0fbb          	addw	t6,s10,s4
                                    ret+=10;
    2f04:	030e5393          	srli	t2,t3,0x30
                            if (tmp>clipval) {
    2f08:	f7f5c5e3          	blt	a1,t6,2e72 <matrix_test+0x1c82>
                                        ret += (cur>prev) ? 1 : 0;
    2f0c:	01af26b3          	slt	a3,t5,s10
                            cur=C[i*N+j];
    2f10:	00832e03          	lw	t3,8(t1)
                                        ret += (cur>prev) ? 1 : 0;
    2f14:	0076863b          	addw	a2,a3,t2
    2f18:	0106129b          	slliw	t0,a2,0x10
    2f1c:	4102dd9b          	sraiw	s11,t0,0x10
                                    ret+=10;
    2f20:	030d9093          	slli	ra,s11,0x30
                            tmp+=cur;
    2f24:	01fe073b          	addw	a4,t3,t6
                                    ret+=10;
    2f28:	0300da13          	srli	s4,ra,0x30
                            if (tmp>clipval) {
    2f2c:	f6e5c4e3          	blt	a1,a4,2e94 <matrix_test+0x1ca4>
                                        ret += (cur>prev) ? 1 : 0;
    2f30:	01cd2ab3          	slt	s5,s10,t3
    2f34:	014a89bb          	addw	s3,s5,s4
    2f38:	03099b13          	slli	s6,s3,0x30
    2f3c:	01099c9b          	slliw	s9,s3,0x10
    2f40:	030b5913          	srli	s2,s6,0x30
    2f44:	410cdf1b          	sraiw	t5,s9,0x10
    2f48:	b78d                	j	2eaa <matrix_test+0x1cba>
    2f4a:	01c2af33          	slt	t5,t0,t3
    2f4e:	00ff00bb          	addw	ra,t5,a5
    2f52:	03009a13          	slli	s4,ra,0x30
    2f56:	01009a9b          	slliw	s5,ra,0x10
    2f5a:	030a5913          	srli	s2,s4,0x30
    2f5e:	410adf1b          	sraiw	t5,s5,0x10
    2f62:	bd55                	j	2e16 <matrix_test+0x1c26>
    2f64:	01cb2d33          	slt	s10,s6,t3
    2f68:	019d03bb          	addw	t2,s10,s9
    2f6c:	0103969b          	slliw	a3,t2,0x10
    2f70:	4106df1b          	sraiw	t5,a3,0x10
    2f74:	bd95                	j	2de8 <matrix_test+0x1bf8>
    2f76:	01cda0b3          	slt	ra,s11,t3
    2f7a:	01e08a3b          	addw	s4,ra,t5
    2f7e:	010a1a9b          	slliw	s5,s4,0x10
    2f82:	410adf1b          	sraiw	t5,s5,0x10
    2f86:	bd35                	j	2dc2 <matrix_test+0x1bd2>
    2f88:	6ca2                	ld	s9,8(sp)
    2f8a:	6662                	ld	a2,24(sp)
    2f8c:	7c02                	ld	s8,32(sp)
                            if (tmp>clipval) {
    2f8e:	4586                	lw	a1,64(sp)
    2f90:	40900a33          	neg	s4,s1
    2f94:	00cc8533          	add	a0,s9,a2
    2f98:	002a1893          	slli	a7,s4,0x2
    2f9c:	4981                	li	s3,0
    2f9e:	4e01                	li	t3,0
    2fa0:	4701                	li	a4,0
    2fa2:	4801                	li	a6,0
                    for (j=0; j<N; j++) {
    2fa4:	41100433          	neg	s0,a7
    2fa8:	ffc40e93          	addi	t4,s0,-4
    2fac:	002edf93          	srli	t6,t4,0x2
    2fb0:	001f8693          	addi	a3,t6,1
    2fb4:	0036fd13          	andi	s10,a3,3
    2fb8:	00a88eb3          	add	t4,a7,a0
    2fbc:	120d0163          	beqz	s10,30de <matrix_test+0x1eee>
    2fc0:	4d85                	li	s11,1
    2fc2:	05bd0b63          	beq	s10,s11,3018 <matrix_test+0x1e28>
    2fc6:	4a89                	li	s5,2
    2fc8:	035d0563          	beq	s10,s5,2ff2 <matrix_test+0x1e02>
                            cur=C[i*N+j];
    2fcc:	80f2                	mv	ra,t3
    2fce:	000eae03          	lw	t3,0(t4)
                                    ret+=10;
    2fd2:	03099393          	slli	t2,s3,0x30
    2fd6:	0303d313          	srli	t1,t2,0x30
                            tmp+=cur;
    2fda:	00ee073b          	addw	a4,t3,a4
                            if (tmp>clipval) {
    2fde:	1ce5d363          	bge	a1,a4,31a4 <matrix_test+0x1fb4>
                                    ret+=10;
    2fe2:	00a3071b          	addiw	a4,t1,10
    2fe6:	0107199b          	slliw	s3,a4,0x10
    2fea:	4109d99b          	sraiw	s3,s3,0x10
                                    tmp=0;
    2fee:	4701                	li	a4,0
                    for (j=0; j<N; j++) {
    2ff0:	0e91                	addi	t4,t4,4
                            cur=C[i*N+j];
    2ff2:	8bf2                	mv	s7,t3
    2ff4:	000eae03          	lw	t3,0(t4)
                                    ret+=10;
    2ff8:	03099913          	slli	s2,s3,0x30
    2ffc:	03095a13          	srli	s4,s2,0x30
                            tmp+=cur;
    3000:	00ee073b          	addw	a4,t3,a4
                            if (tmp>clipval) {
    3004:	18e5d763          	bge	a1,a4,3192 <matrix_test+0x1fa2>
                                    ret+=10;
    3008:	00aa069b          	addiw	a3,s4,10
    300c:	01069d1b          	slliw	s10,a3,0x10
    3010:	410d599b          	sraiw	s3,s10,0x10
                                    tmp=0;
    3014:	4701                	li	a4,0
                    for (j=0; j<N; j++) {
    3016:	0e91                	addi	t4,t4,4
                            cur=C[i*N+j];
    3018:	8df2                	mv	s11,t3
    301a:	000eae03          	lw	t3,0(t4)
                                    ret+=10;
    301e:	03099a93          	slli	s5,s3,0x30
    3022:	030ad093          	srli	ra,s5,0x30
                            tmp+=cur;
    3026:	00ee073b          	addw	a4,t3,a4
                            if (tmp>clipval) {
    302a:	14e5d763          	bge	a1,a4,3178 <matrix_test+0x1f88>
                                    ret+=10;
    302e:	00a08f1b          	addiw	t5,ra,10
    3032:	030f1713          	slli	a4,t5,0x30
    3036:	010f199b          	slliw	s3,t5,0x10
    303a:	03075b93          	srli	s7,a4,0x30
    303e:	4109d99b          	sraiw	s3,s3,0x10
                                    tmp=0;
    3042:	4701                	li	a4,0
                    for (j=0; j<N; j++) {
    3044:	0e91                	addi	t4,t4,4
    3046:	09d51c63          	bne	a0,t4,30de <matrix_test+0x1eee>
            for (i=0; i<N; i++) {
    304a:	00180413          	addi	s0,a6,1
    304e:	9532                	add	a0,a0,a2
    3050:	af028163          	beq	t0,a6,2332 <matrix_test+0x1142>
    3054:	8822                	mv	a6,s0
    3056:	b7b9                	j	2fa4 <matrix_test+0x1db4>
                                        ret += (cur>prev) ? 1 : 0;
    3058:	017e2e33          	slt	t3,t3,s7
                            cur=C[i*N+j];
    305c:	004eaa83          	lw	s5,4(t4)
                                        ret += (cur>prev) ? 1 : 0;
    3060:	014e0cbb          	addw	s9,t3,s4
    3064:	010c941b          	slliw	s0,s9,0x10
    3068:	41045d1b          	sraiw	s10,s0,0x10
                                    ret+=10;
    306c:	030d1093          	slli	ra,s10,0x30
                            tmp+=cur;
    3070:	01ba8b3b          	addw	s6,s5,s11
                    for (j=0; j<N; j++) {
    3074:	0e91                	addi	t4,t4,4
                                    ret+=10;
    3076:	0300d393          	srli	t2,ra,0x30
                            if (tmp>clipval) {
    307a:	0965de63          	bge	a1,s6,3116 <matrix_test+0x1f26>
                            cur=C[i*N+j];
    307e:	004ea903          	lw	s2,4(t4)
                                    ret+=10;
    3082:	00a3899b          	addiw	s3,t2,10
    3086:	01099b9b          	slliw	s7,s3,0x10
    308a:	410bd71b          	sraiw	a4,s7,0x10
                                    tmp=0;
    308e:	4b01                	li	s6,0
                                    ret+=10;
    3090:	03071a13          	slli	s4,a4,0x30
                            tmp+=cur;
    3094:	01690cbb          	addw	s9,s2,s6
                                    ret+=10;
    3098:	030a5e13          	srli	t3,s4,0x30
                            if (tmp>clipval) {
    309c:	0995df63          	bge	a1,s9,313a <matrix_test+0x1f4a>
                                    ret+=10;
    30a0:	00ae0d9b          	addiw	s11,t3,10
                            cur=C[i*N+j];
    30a4:	008eae03          	lw	t3,8(t4)
                                    ret+=10;
    30a8:	010d9a9b          	slliw	s5,s11,0x10
    30ac:	410add1b          	sraiw	s10,s5,0x10
                                    tmp=0;
    30b0:	4c81                	li	s9,0
                                    ret+=10;
    30b2:	030d1093          	slli	ra,s10,0x30
                            tmp+=cur;
    30b6:	019e073b          	addw	a4,t3,s9
                                    ret+=10;
    30ba:	0300d393          	srli	t2,ra,0x30
                            if (tmp>clipval) {
    30be:	0ae5d063          	bge	a1,a4,315e <matrix_test+0x1f6e>
                                    ret+=10;
    30c2:	00a3891b          	addiw	s2,t2,10
    30c6:	03091a13          	slli	s4,s2,0x30
    30ca:	01091c9b          	slliw	s9,s2,0x10
    30ce:	030a5b93          	srli	s7,s4,0x30
    30d2:	410cd99b          	sraiw	s3,s9,0x10
                                    tmp=0;
    30d6:	4701                	li	a4,0
                    for (j=0; j<N; j++) {
    30d8:	0eb1                	addi	t4,t4,12
    30da:	f7d508e3          	beq	a0,t4,304a <matrix_test+0x1e5a>
                            cur=C[i*N+j];
    30de:	000eab83          	lw	s7,0(t4)
                                    ret+=10;
    30e2:	03099913          	slli	s2,s3,0x30
    30e6:	03095a13          	srli	s4,s2,0x30
                            tmp+=cur;
    30ea:	00eb8dbb          	addw	s11,s7,a4
                            if (tmp>clipval) {
    30ee:	f7b5d5e3          	bge	a1,s11,3058 <matrix_test+0x1e68>
                            cur=C[i*N+j];
    30f2:	004eaa83          	lw	s5,4(t4)
                                    ret+=10;
    30f6:	00aa0f9b          	addiw	t6,s4,10
    30fa:	010f969b          	slliw	a3,t6,0x10
    30fe:	4106dd1b          	sraiw	s10,a3,0x10
                                    tmp=0;
    3102:	4d81                	li	s11,0
                                    ret+=10;
    3104:	030d1093          	slli	ra,s10,0x30
                            tmp+=cur;
    3108:	01ba8b3b          	addw	s6,s5,s11
                    for (j=0; j<N; j++) {
    310c:	0e91                	addi	t4,t4,4
                                    ret+=10;
    310e:	0300d393          	srli	t2,ra,0x30
                            if (tmp>clipval) {
    3112:	f765c6e3          	blt	a1,s6,307e <matrix_test+0x1e8e>
                                        ret += (cur>prev) ? 1 : 0;
    3116:	015ba333          	slt	t1,s7,s5
                            cur=C[i*N+j];
    311a:	004ea903          	lw	s2,4(t4)
                                        ret += (cur>prev) ? 1 : 0;
    311e:	007307bb          	addw	a5,t1,t2
    3122:	01079f1b          	slliw	t5,a5,0x10
    3126:	410f571b          	sraiw	a4,t5,0x10
                                    ret+=10;
    312a:	03071a13          	slli	s4,a4,0x30
                            tmp+=cur;
    312e:	01690cbb          	addw	s9,s2,s6
                                    ret+=10;
    3132:	030a5e13          	srli	t3,s4,0x30
                            if (tmp>clipval) {
    3136:	f795c5e3          	blt	a1,s9,30a0 <matrix_test+0x1eb0>
                                        ret += (cur>prev) ? 1 : 0;
    313a:	012aa433          	slt	s0,s5,s2
    313e:	01c40fbb          	addw	t6,s0,t3
                            cur=C[i*N+j];
    3142:	008eae03          	lw	t3,8(t4)
                                        ret += (cur>prev) ? 1 : 0;
    3146:	010f969b          	slliw	a3,t6,0x10
    314a:	4106dd1b          	sraiw	s10,a3,0x10
                                    ret+=10;
    314e:	030d1093          	slli	ra,s10,0x30
                            tmp+=cur;
    3152:	019e073b          	addw	a4,t3,s9
                                    ret+=10;
    3156:	0300d393          	srli	t2,ra,0x30
                            if (tmp>clipval) {
    315a:	f6e5c4e3          	blt	a1,a4,30c2 <matrix_test+0x1ed2>
                                        ret += (cur>prev) ? 1 : 0;
    315e:	01c92b33          	slt	s6,s2,t3
    3162:	007b07bb          	addw	a5,s6,t2
    3166:	03079313          	slli	t1,a5,0x30
    316a:	01079f1b          	slliw	t5,a5,0x10
    316e:	03035b93          	srli	s7,t1,0x30
    3172:	410f599b          	sraiw	s3,t5,0x10
    3176:	b78d                	j	30d8 <matrix_test+0x1ee8>
    3178:	01cda3b3          	slt	t2,s11,t3
    317c:	00138b3b          	addw	s6,t2,ra
    3180:	030b1313          	slli	t1,s6,0x30
    3184:	010b179b          	slliw	a5,s6,0x10
    3188:	03035b93          	srli	s7,t1,0x30
    318c:	4107d99b          	sraiw	s3,a5,0x10
    3190:	bd55                	j	3044 <matrix_test+0x1e54>
    3192:	01cbacb3          	slt	s9,s7,t3
    3196:	014c843b          	addw	s0,s9,s4
    319a:	01041f9b          	slliw	t6,s0,0x10
    319e:	410fd99b          	sraiw	s3,t6,0x10
    31a2:	bd95                	j	3016 <matrix_test+0x1e26>
    31a4:	01c0ab33          	slt	s6,ra,t3
    31a8:	006b07bb          	addw	a5,s6,t1
    31ac:	01079f1b          	slliw	t5,a5,0x10
    31b0:	410f599b          	sraiw	s3,t5,0x10
    31b4:	bd35                	j	2ff0 <matrix_test+0x1e00>
                    for (j=0; j<N; j++) {
    31b6:	4681                	li	a3,0
    31b8:	b4c9                	j	2c7a <matrix_test+0x1a8a>
    31ba:	4701                	li	a4,0
    31bc:	b16fe06f          	j	14d2 <matrix_test+0x2e2>
                    data >>= 1;
    31c0:	4681                	li	a3,0
            for (i=0; i<N; i++) {
    31c2:	4701                	li	a4,0
                    crc >>= 1;
    31c4:	4281                	li	t0,0
    31c6:	f98fe06f          	j	195e <matrix_test+0x76e>
            for (i=0; i<N; i++) {
    31ca:	4581                	li	a1,0
    31cc:	4f81                	li	t6,0
    31ce:	bebfe06f          	j	1db8 <matrix_test+0xbc8>

00000000000031d2 <core_bench_matrix>:
    ee_u16 core_bench_matrix(mat_params *p, ee_s16 seed, ee_u16 crc) {
    31d2:	1141                	addi	sp,sp,-16
            crc=crc16(matrix_test(N,C,A,B,val),crc);
    31d4:	6914                	ld	a3,16(a0)
    ee_u16 core_bench_matrix(mat_params *p, ee_s16 seed, ee_u16 crc) {
    31d6:	872e                	mv	a4,a1
    31d8:	e022                	sd	s0,0(sp)
            crc=crc16(matrix_test(N,C,A,B,val),crc);
    31da:	6d0c                	ld	a1,24(a0)
    ee_u16 core_bench_matrix(mat_params *p, ee_s16 seed, ee_u16 crc) {
    31dc:	8432                	mv	s0,a2
            crc=crc16(matrix_test(N,C,A,B,val),crc);
    31de:	6510                	ld	a2,8(a0)
    31e0:	4108                	lw	a0,0(a0)
    ee_u16 core_bench_matrix(mat_params *p, ee_s16 seed, ee_u16 crc) {
    31e2:	e406                	sd	ra,8(sp)
            crc=crc16(matrix_test(N,C,A,B,val),crc);
    31e4:	80cfe0ef          	jal	ra,11f0 <matrix_test>
                    x16 = (ee_u8)((data & 1) ^ ((ee_u8)crc & 1));
    31e8:	00a446b3          	xor	a3,s0,a0
        crc=crcu8( (ee_u8) (newval)               ,crc);
    31ec:	0ff57713          	andi	a4,a0,255
        crc=crc16((ee_s16) newval        ,crc);
        crc=crc16((ee_s16) (newval>>16) ,crc);
        return crc;
}
ee_u16 crc16(ee_s16 newval, ee_u16 crc) {
        return crcu16((ee_u16)newval, crc);
    31f0:	03051793          	slli	a5,a0,0x30
                    if (x16 == 1)
    31f4:	0016f293          	andi	t0,a3,1
        return crcu16((ee_u16)newval, crc);
    31f8:	0307d313          	srli	t1,a5,0x30
                    data >>= 1;
    31fc:	00175613          	srli	a2,a4,0x1
                    crc >>= 1;
    3200:	00145813          	srli	a6,s0,0x1
                    if (x16 == 1)
    3204:	00028b63          	beqz	t0,321a <core_bench_matrix+0x48>
                         crc |= 0x8000;
    3208:	70e9                	lui	ra,0xffffa
    320a:	00108393          	addi	t2,ra,1 # ffffffffffffa001 <tohost+0xffffffff8fa7a001>
    320e:	00784533          	xor	a0,a6,t2
    3212:	03051593          	slli	a1,a0,0x30
    3216:	0305d813          	srli	a6,a1,0x30
                    x16 = (ee_u8)((data & 1) ^ ((ee_u8)crc & 1));
    321a:	00c848b3          	xor	a7,a6,a2
                    if (x16 == 1)
    321e:	0018fe13          	andi	t3,a7,1
                    data >>= 1;
    3222:	00275e93          	srli	t4,a4,0x2
                    crc >>= 1;
    3226:	00185293          	srli	t0,a6,0x1
                    if (x16 == 1)
    322a:	000e0b63          	beqz	t3,3240 <core_bench_matrix+0x6e>
                         crc |= 0x8000;
